******************************************************************************
                  TI ARM Linker PC v16.9.3                     
******************************************************************************
>> Linked Fri Dec 01 19:21:32 2017

OUTPUT FILE NAME:   <SeniorProjCoordinator.out>
ENTRY POINT SYMBOL: "ResetISR"  address: 00007689


MEMORY CONFIGURATION

         name            origin    length      used     unused   attr    fill
----------------------  --------  ---------  --------  --------  ----  --------
  FLASH                 00000000   00020000  0000b709  000148f7  R  X
  SRAM                  20000000   00005000  00002e2e  000021d2  RW X


SEGMENT ALLOCATION MAP

run origin  load origin   length   init length attrs members
----------  ----------- ---------- ----------- ----- -------
00000000    00000000    0000003c   0000003c    r--
  00000000    00000000    0000003c   0000003c    r-- .resetVecs
00000100    00000100    0000b688   0000b688    r-x
  00000100    00000100    0000003c   0000003c    r-- .const:ti_sysbios_knl_Task_Object__PARAMS__C
  0000013c    0000013c    00000034   00000034    r-- .const:ti_sysbios_knl_Mailbox_Object__PARAMS__C
  00000170    00000170    00000030   00000030    r-- .const:ti_sysbios_family_arm_m3_Hwi_Object__PARAMS__C
  000001a0    000001a0    0000002c   0000002c    r-- .const:ti_sysbios_hal_Hwi_Object__PARAMS__C
  000001cc    000001cc    00000028   00000028    r-- .const:ti_sysbios_heaps_HeapMem_Module__FXNS__C
  000001f4    000001f4    00000028   00000028    r-- .const:ti_sysbios_knl_Swi_Object__PARAMS__C
  0000021c    0000021c    00000024   00000024    r-- .const:ti_sysbios_gates_GateHwi_Module__FXNS__C
  00000240    00000240    00000024   00000024    r-- .const:ti_sysbios_gates_GateMutex_Module__FXNS__C
  00000264    00000264    00000024   00000024    r-- .const:ti_sysbios_heaps_HeapMem_Object__PARAMS__C
  00000288    00000288    00000024   00000024    r-- .const:ti_sysbios_knl_Clock_Object__PARAMS__C
  000002ac    000002ac    00000024   00000024    r-- .const:ti_sysbios_knl_Semaphore_Object__PARAMS__C
  000002d0    000002d0    00000020   00000020    r-- .const:ti_sysbios_family_arm_m3_Hwi_Object__DESC__C
  000002f0    000002f0    00000020   00000020    r-- .const:ti_sysbios_gates_GateHwi_Object__DESC__C
  00000310    00000310    00000020   00000020    r-- .const:ti_sysbios_gates_GateMutex_Object__DESC__C
  00000330    00000330    00000020   00000020    r-- .const:ti_sysbios_hal_Hwi_Object__DESC__C
  00000350    00000350    00000020   00000020    r-- .const:ti_sysbios_heaps_HeapMem_Object__DESC__C
  00000370    00000370    00000020   00000020    r-- .const:ti_sysbios_knl_Clock_Object__DESC__C
  00000390    00000390    00000020   00000020    r-- .const:ti_sysbios_knl_Mailbox_Object__DESC__C
  000003b0    000003b0    00000020   00000020    r-- .const:ti_sysbios_knl_Queue_Object__DESC__C
  000003d0    000003d0    00000020   00000020    r-- .const:ti_sysbios_knl_Semaphore_Object__DESC__C
  000003f0    000003f0    00000020   00000020    r-- .const:ti_sysbios_knl_Swi_Object__DESC__C
  00000410    00000410    00000020   00000020    r-- .const:ti_sysbios_knl_Task_Object__DESC__C
  00000430    00000430    00000018   00000018    r-- .const:ti_sysbios_gates_GateHwi_Object__PARAMS__C
  00000448    00000448    00000018   00000018    r-- .const:ti_sysbios_gates_GateMutex_Object__PARAMS__C
  00000460    00000460    00000018   00000018    r-- .const:ti_sysbios_knl_Queue_Object__PARAMS__C
  00000478    00000478    00000008   00000008    r-- .const:ti_sysbios_knl_Idle_funcList__C
  00000484    00000484    00000004   00000004    r-- .const:ti_sysbios_family_arm_cc26xx_Timer_startupNeeded__C
  00000488    00000488    00000004   00000004    r-- .const:ti_sysbios_family_arm_m3_Hwi_E_alreadyDefined__C
  0000048c    0000048c    00000004   00000004    r-- .const:ti_sysbios_family_arm_m3_Hwi_E_hwiLimitExceeded__C
  00000490    00000490    00000004   00000004    r-- .const:ti_sysbios_family_arm_m3_Hwi_NUM_INTERRUPTS__C
  00000494    00000494    00000004   00000004    r-- .const:ti_sysbios_family_arm_m3_Hwi_Object__count__C
  00000498    00000498    00000004   00000004    r-- .const:ti_sysbios_family_arm_m3_Hwi_Object__table__C
  0000049c    0000049c    00000004   00000004    r-- .const:ti_sysbios_family_arm_m3_Hwi_ccr__C
  000004a0    000004a0    00000004   00000004    r-- .const:ti_sysbios_family_arm_m3_Hwi_excHandlerFunc__C
  000004a4    000004a4    00000004   00000004    r-- .const:ti_sysbios_family_arm_m3_Hwi_nullIsrFunc__C
  000004a8    000004a8    00000004   00000004    r-- .const:ti_sysbios_family_arm_m3_Hwi_numSparseInterrupts__C
  000004ac    000004ac    00000004   00000004    r-- .const:ti_sysbios_family_arm_m3_Hwi_priGroup__C
  000004b0    000004b0    00000004   00000004    r-- .const:ti_sysbios_family_arm_m3_TaskSupport_stackAlignment__C
  000004b4    000004b4    00000004   00000004    r-- .const:ti_sysbios_heaps_HeapMem_E_memory__C
  000004b8    000004b8    00000004   00000004    r-- .const:ti_sysbios_heaps_HeapMem_Module__gateObj__C
  000004bc    000004bc    00000004   00000004    r-- .const:ti_sysbios_heaps_HeapMem_Object__count__C
  000004c0    000004c0    00000004   00000004    r-- .const:ti_sysbios_heaps_HeapMem_Object__table__C
  000004c4    000004c4    00000004   00000004    r-- .const:ti_sysbios_heaps_HeapMem_reqAlign__C
  000004c8    000004c8    00000004   00000004    r-- .const:ti_sysbios_knl_Clock_serviceMargin__C
  000004cc    000004cc    00000004   00000004    r-- .const:ti_sysbios_knl_Mailbox_Object__count__C
  000004d0    000004d0    00000004   00000004    r-- .const:ti_sysbios_knl_Mailbox_Object__table__C
  000004d4    000004d4    00000004   00000004    r-- .const:ti_sysbios_knl_Queue_Object__count__C
  000004d8    000004d8    00000004   00000004    r-- .const:ti_sysbios_knl_Queue_Object__table__C
  000004dc    000004dc    00000004   00000004    r-- .const:ti_sysbios_knl_Swi_Object__count__C
  000004e0    000004e0    00000004   00000004    r-- .const:ti_sysbios_knl_Swi_Object__table__C
  000004e4    000004e4    00000004   00000004    r-- .const:ti_sysbios_knl_Swi_numPriorities__C
  000004e8    000004e8    00000004   00000004    r-- .const:ti_sysbios_knl_Task_Object__count__C
  000004ec    000004ec    00000004   00000004    r-- .const:ti_sysbios_knl_Task_Object__table__C
  000004f0    000004f0    00000004   00000004    r-- .const:ti_sysbios_knl_Task_allBlockedFunc__C
  000004f4    000004f4    00000004   00000004    r-- .const:ti_sysbios_knl_Task_defaultStackHeap__C
  000004f8    000004f8    00000004   00000004    r-- .const:ti_sysbios_knl_Task_defaultStackSize__C
  000004fc    000004fc    00000004   00000004    r-- .const:ti_sysbios_knl_Task_numConstructedTasks__C
  00000502    00000502    00000002   00000002    r-- .const:ti_sysbios_family_arm_cc26xx_Timer_Module__id__C
  00000504    00000504    00000002   00000002    r-- .const:ti_sysbios_family_arm_cc26xx_TimestampProvider_useClockTimer__C
  00000506    00000506    00000002   00000002    r-- .const:ti_sysbios_family_arm_m3_Hwi_Module__id__C
  00000508    00000508    00000002   00000002    r-- .const:ti_sysbios_gates_GateHwi_Module__id__C
  0000050a    0000050a    00000002   00000002    r-- .const:ti_sysbios_gates_GateMutex_Module__id__C
  0000050c    0000050c    00000002   00000002    r-- .const:ti_sysbios_heaps_HeapMem_Module__id__C
  0000050e    0000050e    00000002   00000002    r-- .const:ti_sysbios_knl_Task_initStackFlag__C
  00000510    00000510    00000001   00000001    r-- .const:ti_sysbios_knl_Clock_tickMode__C
  00000514    00000514    00000008   00000008    r-- .const:xdc_runtime_Startup_firstFxns__C
  0000051c    0000051c    00000008   00000008    r-- .const:xdc_runtime_Startup_lastFxns__C
  00000524    00000524    00000004   00000004    r-- .const:xdc_runtime_Assert_E_assertFailed__C
  00000528    00000528    00000004   00000004    r-- .const:xdc_runtime_Error_E_memory__C
  0000052c    0000052c    00000004   00000004    r-- .const:xdc_runtime_Error_policyFxn__C
  00000530    00000530    00000004   00000004    r-- .const:xdc_runtime_IGateProvider_Interface__BASE__C
  00000534    00000534    00000004   00000004    r-- .const:xdc_runtime_IHeap_Interface__BASE__C
  00000538    00000538    00000004   00000004    r-- .const:xdc_runtime_IModule_Interface__BASE__C
  0000053c    0000053c    00000004   00000004    r-- .const:xdc_runtime_Main_Module__diagsEnabled__C
  00000540    00000540    00000004   00000004    r-- .const:xdc_runtime_Main_Module__diagsIncluded__C
  00000544    00000544    00000004   00000004    r-- .const:xdc_runtime_Main_Module__diagsMask__C
  00000548    00000548    00000004   00000004    r-- .const:xdc_runtime_Memory_defaultHeapInstance__C
  0000054c    0000054c    00000004   00000004    r-- .const:xdc_runtime_Startup_execImpl__C
  00000550    00000550    00000004   00000004    r-- .const:xdc_runtime_Startup_maxPasses__C
  00000554    00000554    00000004   00000004    r-- .const:xdc_runtime_Startup_sfxnRts__C
  00000558    00000558    00000004   00000004    r-- .const:xdc_runtime_Startup_sfxnTab__C
  0000055c    0000055c    00000004   00000004    r-- .const:xdc_runtime_Startup_startModsFxn__C
  00000560    00000560    00000004   00000004    r-- .const:xdc_runtime_SysCallback_abortFxn__C
  00000564    00000564    00000004   00000004    r-- .const:xdc_runtime_SysCallback_exitFxn__C
  00000568    00000568    00000004   00000004    r-- .const:xdc_runtime_System_abortFxn__C
  0000056c    0000056c    00000004   00000004    r-- .const:xdc_runtime_System_exitFxn__C
  00000570    00000570    00000004   00000004    r-- .const:xdc_runtime_System_maxAtexitHandlers__C
  00000574    00000574    00000004   00000004    r-- .const:xdc_runtime_Text_charTab__C
  00000578    00000578    00000004   00000004    r-- .const:xdc_runtime_Text_nameEmpty__C
  0000057c    0000057c    00000004   00000004    r-- .const:xdc_runtime_Text_nameStatic__C
  00000580    00000580    00000004   00000004    r-- .const:xdc_runtime_Text_nameUnknown__C
  00000584    00000584    00000002   00000002    r-- .const:xdc_runtime_Main_Module__id__C
  00000586    00000586    00000002   00000002    r-- .const:xdc_runtime_Memory_Module__id__C
  00000588    00000588    00000002   00000002    r-- .const:xdc_runtime_Text_charCnt__C
  0000058a    0000058a    00000002   00000002    r-- .const:xdc_runtime_Text_isLoaded__C
  0000058c    0000058c    00000001   00000001    r-- .const:xdc_runtime_Error_policy__C
  00000590    00000590    00000004   00000004    r-- .const:ti_sysbios_rom_ROM_AONRTCChannelEnable
  00000594    00000594    00000004   00000004    r-- .const:ti_sysbios_rom_ROM_AONRTCCompareValueSet
  00000598    00000598    00000004   00000004    r-- .const:ti_sysbios_rom_ROM_AONRTCCurrentCompareValueGet
  0000059c    0000059c    00000004   00000004    r-- .const:ti_sysbios_rom_ROM_AONRTCEventClear
  000005a0    000005a0    00000004   00000004    r-- .const:ti_sysbios_rom_ROM_ti_sysbios_family_arm_cc26xx_Timer_getCount64__E
  000005a4    000005a4    00000004   00000004    r-- .const:ti_sysbios_rom_ROM_ti_sysbios_family_arm_cc26xx_Timer_getCurrentTick__E
  000005a8    000005a8    00000004   00000004    r-- .const:ti_sysbios_rom_ROM_ti_sysbios_family_arm_cc26xx_Timer_getMaxTicks__E
  000005ac    000005ac    00000004   00000004    r-- .const:ti_sysbios_rom_ROM_ti_sysbios_family_arm_cc26xx_Timer_initDevice__I
  000005b0    000005b0    00000004   00000004    r-- .const:ti_sysbios_rom_ROM_ti_sysbios_family_arm_cc26xx_Timer_setNextTick__E
  000005b4    000005b4    00000004   00000004    r-- .const:ti_sysbios_rom_ROM_ti_sysbios_family_arm_cc26xx_Timer_setThreshold__I
  000005b8    000005b8    00000004   00000004    r-- .const:ti_sysbios_rom_ROM_ti_sysbios_family_arm_cc26xx_Timer_start__E
  000005bc    000005bc    00000004   00000004    r-- .const:ti_sysbios_rom_ROM_ti_sysbios_family_arm_cc26xx_TimestampProvider_get32__E
  000005c0    000005c0    00000004   00000004    r-- .const:ti_sysbios_rom_ROM_xdc_runtime_Startup_getState__I
  000005c4    000005c4    00000004   00000004    r-- .const:ti_sysbios_rom_ROM_xdc_runtime_System_SupportProxy_abort__E
  000005c8    000005c8    00000004   00000004    r-- .const:ti_sysbios_rom_ROM_xdc_runtime_System_SupportProxy_exit__E
  000005cc    000005cc    00000004   00000004    r-- .const:ti_sysbios_gates_GateMutex_Instance_State_sem__O
  000005d0    000005d0    00000004   00000004    r-- .const:ti_sysbios_knl_Clock_Module_State_clockQ__O
  000005d4    000005d4    00000004   00000004    r-- .const:ti_sysbios_knl_Mailbox_Instance_State_dataQue__O
  000005d8    000005d8    00000004   00000004    r-- .const:ti_sysbios_knl_Mailbox_Instance_State_dataSem__O
  000005dc    000005dc    00000004   00000004    r-- .const:ti_sysbios_knl_Mailbox_Instance_State_freeQue__O
  000005e0    000005e0    00000004   00000004    r-- .const:ti_sysbios_knl_Mailbox_Instance_State_freeSem__O
  000005e4    000005e4    00000004   00000004    r-- .const:ti_sysbios_knl_Semaphore_Instance_State_pendQ__O
  000005e8    000005e8    00000004   00000004    r-- .const:ti_sysbios_knl_Task_Module_State_inactiveQ__O
  000005ec    000005ec    0000884c   0000884c    r-x .text
  00008e38    00008e38    000025c1   000025c1    r-- .const
  0000b400    0000b400    00000388   00000388    r-- .cinit
0001ffa8    0001ffa8    00000058   00000058    r--
  0001ffa8    0001ffa8    00000058   00000058    r-- .ccfg
20000100    20000100    00000104   00000000    rw-
  20000100    20000100    00000044   00000000    rw- .data:ti_sysbios_knl_Task_Module__state__V
  20000144    20000144    00000034   00000000    rw- .data:ti_sysbios_family_arm_m3_Hwi_Module__state__V
  20000178    20000178    0000002c   00000000    rw- .data:ti_sysbios_knl_Clock_Module__state__V
  200001a4    200001a4    00000024   00000000    rw- .data:ti_sysbios_BIOS_Module__state__V
  200001c8    200001c8    0000001c   00000000    rw- .data:ti_sysbios_knl_Swi_Module__state__V
  200001e4    200001e4    00000008   00000000    rw- .data:ti_sysbios_family_arm_cc26xx_Timer_Module__state__V
  200001ec    200001ec    00000004   00000000    rw- .data:ti_sysbios_family_arm_cc26xx_TimestampProvider_Module__state__V
  200001f0    200001f0    00000008   00000000    rw- .data:xdc_runtime_Startup_Module__state__V
  200001f8    200001f8    00000008   00000000    rw- .data:xdc_runtime_System_Module__state__V
  20000200    20000200    00000004   00000000    rw- .data:xdc_runtime_Memory_Module__state__V
20000430    20000430    00000010   00000000    rw-
  20000430    20000430    00000010   00000000    rw- .TI.bound:dmaSpi0RxControlTableEntry
20000440    20000440    00000010   00000000    rw-
  20000440    20000440    00000010   00000000    rw- .TI.bound:dmaSpi0TxControlTableEntry
20000500    20000500    00000010   00000000    rw-
  20000500    20000500    00000010   00000000    rw- .TI.bound:dmaSpi1RxControlTableEntry
20000510    20000510    00002938   00000000    rw-
  20000510    20000510    00000010   00000000    rw- .TI.bound:dmaSpi1TxControlTableEntry
  20000520    20000520    0000238a   00000000    rw- .bss
  200028b0    200028b0    00000598   00000000    rw- .data
20004d00    20004d00    00000300   00000000    rw-
  20004d00    20004d00    00000300   00000000    rw- .stack


SECTION ALLOCATION MAP

 output                                  attributes/
section   page    origin      length       input sections
--------  ----  ----------  ----------   ----------------
.text      0    000005ec    0000884c     
                  000005ec    00000478     GPS.obj (.text:GPS)
                  00000a64    000003b8     rf_singleMode_cc26xxware.aem3 : RFCC26XX_singleMode.oem3 (.text:fsmActiveState)
                  00000e1c    0000033c     rom_sysbios.aem3 : rom_sysbios.obj (.text:xdc_runtime_System_doPrint__I)
                  00001158    00000324     EasyLink.obj (.text:EasyLink_init)
                  0000147c    000002e8     grlib.aem3 : string.oem3 (.text:GrStringDraw)
                  00001764    00000228     drivers_cc26xxware.aem3 : PowerCC26XX.oem3 (.text:Power_sleep)
                  0000198c    00000204     driverlib.lib : sys_ctrl.obj (.text:NOROM_SysCtrlSetRechargeBeforePowerDown)
                  00001b90    000001f4     rtsv7M3_T_le_eabi.lib : ull_div_t2.obj (.text)
                  00001d84    000001dc     rf_singleMode_cc26xxware.aem3 : RFCC26XX_singleMode.oem3 (.text:RF_postCmd)
                  00001f60    000001d0     drivers_cc26xxware.aem3 : PowerCC26XX_calibrateRCOSC.oem3 (.text:calibrateRcoscHf1)
                  00002130    000001c4                             : PINCC26XX.oem3 (.text:PIN_init)
                  000022f4    000001a0                             : UARTCC26XX.oem3 (.text:UARTCC26XX_open)
                  00002494    00000188     EasyLink.obj (.text:rxDoneCallback)
                  0000261c    00000184     drivers_cc26xxware.aem3 : PowerCC26XX_calibrateRCOSC.oem3 (.text:PowerCC26XX_doCalibrate)
                  000027a0    00000170     EasyLink.obj (.text:EasyLink_receiveAsync)
                  00002910    00000168     rf_singleMode_cc26xxware.aem3 : RFCC26XX_singleMode.oem3 (.text:fsmSetupState)
                  00002a78    00000160     drivers_cc26xxware.aem3 : SPICC26XXDMA.oem3 (.text:SPICC26XXDMA_initIO)
                  00002bd8    00000150     smartrf_settings.obj (.text:rf_patch_rfe_genfsk)
                  00002d28    00000150     smartrf_settings_predefined.obj (.text:rf_patch_rfe_genfsk)
                  00002e78    00000148     drivers_cc26xxware.aem3 : SPICC26XXDMA.oem3 (.text:SPICC26XXDMA_open)
                  00002fc0    00000140     display.aem3 : DisplaySharp.oem3 (.text:DisplaySharp_open)
                  00003100    0000013c     EasyLink.obj (.text:EasyLink_transmit)
                  0000323c    00000130     driverlib.lib : setup_rom.obj (.text:NOROM_SetupAfterColdResetWakeupFromShutDownCfg3)
                  0000336c    00000128     rf_singleMode_cc26xxware.aem3 : RFCC26XX_singleMode.oem3 (.text:rf_init)
                  00003494    0000011c     drivers_cc26xxware.aem3 : PowerCC26XX.oem3 (.text:Power_init)
                  000035b0    0000011c                             : UARTCC26XX.oem3 (.text:UARTCC26XX_read)
                  000036cc    00000118     rf_singleMode_cc26xxware.aem3 : RFCC26XX_singleMode.oem3 (.text:hwiFxnCpe0Active)
                  000037e4    00000114     smartrf_settings.obj (.text:rf_patch_mce_genfsk)
                  000038f8    00000114     smartrf_settings_predefined.obj (.text:rf_patch_mce_genfsk)
                  00003a0c    00000110     drivers_cc26xxware.aem3 : UARTCC26XX.oem3 (.text:UARTCC26XX_hwiIntFxn)
                  00003b1c    00000108     rf_singleMode_cc26xxware.aem3 : RFCC26XX_singleMode.oem3 (.text:RF_close)
                  00003c24    00000104     CoordinatorRFTask.obj (.text:coordinatorRFTaskFunction)
                  00003d28    00000100     lcd.aem3 : SharpGrLib.oem3 (.text:SharpGrLib_flush)
                  00003e28    000000fc     drivers_cc26xxware.aem3 : UARTCC26XX.oem3 (.text:UARTCC26XX_write)
                  00003f24    000000f8     SeniorProj_pem3.oem3 (.text:xdc_runtime_System_printfExtend__I)
                  0000401c    000000f4     drivers_cc26xxware.aem3 : SPICC26XXDMA.oem3 (.text:SPICC26XXDMA_configDMA)
                  00004110    000000f0                             : SPICC26XXDMA.oem3 (.text:SPICC26XXDMA_transferCancel)
                  00004200    000000e8     rom_sysbios.aem3 : rom_sysbios.obj (.text:ti_sysbios_knl_Event_pend__E)
                  000042e8    000000e6     lcd.aem3 : SharpGrLib.oem3 (.text:SharpGrLib_rectFill)
                  000043ce    00000002     display.aem3 : DisplayUart.oem3 (.text:DisplayUart_clear)
                  000043d0    000000e4     driverlib.lib : setup_rom.obj (.text:NOROM_SetupAfterColdResetWakeupFromShutDownCfg2)
                  000044b4    000000e0     display.aem3 : DisplaySharp.oem3 (.text:DisplaySharp_put5)
                  00004594    000000e0     drivers_cc26xxware.aem3 : PINCC26XX.oem3 (.text:PINCC26XX_setIoCfg)
                  00004674    000000d8     EasyLink.obj (.text:EasyLink_enableRxAddrFilter)
                  0000474c    000000d4     power_cc26xx_tirtos.aem3 : PowerCC26XX_tirtos.oem3 (.text:PowerCC26XX_standbyPolicy)
                  00004820    000000d4     drivers_cc26xxware.aem3 : PowerCC26XX.oem3 (.text:Power_releaseDependency)
                  000048f4    000000d4                             : SPICC26XXDMA.oem3 (.text:SPICC26XXDMA_control)
                  000049c8    000000d0     display.aem3 : DisplaySharp.oem3 (.text:DisplaySharp_control)
                  00004a98    000000d0     drivers_cc26xxware.aem3 : PowerCC26XX.oem3 (.text:Power_setDependency)
                  00004b68    000000cc     rf_singleMode_cc26xxware.aem3 : RFCC26XX_singleMode.oem3 (.text:RF_open)
                  00004c34    000000c8     drivers_cc26xxware.aem3 : UARTCC26XX.oem3 (.text:UARTCC26XX_initHw)
                  00004cfc    000000c4     rf_singleMode_cc26xxware.aem3 : RFCC26XX_singleMode.oem3 (.text:fsmPowerUpState)
                  00004dc0    000000bc     CoordinatorRFTask.obj (.text:CoordinatorRFTask_init)
                  00004e7c    000000bc     lcd.aem3 : SharpGrLib.oem3 (.text:SharpGrLib_clearScreen)
                  00004f38    000000bc     driverlib.lib : setup.obj (.text:TrimAfterColdResetWakeupFromShutDown)
                  00004ff4    000000b4     CoordinatorRFTask.obj (.text:rxDoneCallback)
                  000050a8    000000b0     drivers_cc26xxware.aem3 : SPICC26XXDMA.oem3 (.text:SPICC26XXDMA_transfer)
                  00005158    000000aa     lcd.aem3 : SharpGrLib.oem3 (.text:SharpGrLib_lineDrawH)
                  00005202    00000002     display.aem3 : DisplayUart.oem3 (.text:DisplayUart_clearLines)
                  00005204    000000a8     driverlib.lib : setup.obj (.text:NOROM_SetupTrimDevice)
                  000052ac    000000a2     drivers_cc26xxware.aem3 : SPICC26XXDMA.oem3 (.text:SPICC26XXDMA_hwiFxn)
                  0000534e    00000002     driverlib.lib : rfc.obj (.text:NOROM_RFCAdi3VcoLdoVoltageMode)
                  00005350    000000a0     auto_init.aem3 : auto_init.oem3 (.text)
                  000053f0    0000009e     rom_sysbios.aem3 : rom_sysbios.obj (.text:xdc_runtime_Text_putSite__E)
                  0000548e    0000009c     rtsv7M3_T_le_eabi.lib : memcpy_t2.obj (.text)
                  0000552a    00000002     driverlib.lib : rfc.obj (.text:NOROM_RFCRTrim)
                  0000552c    00000098     rom_sysbios.aem3 : rom_sysbios.obj (.text:ti_sysbios_knl_Clock_workFuncDynamic__E)
                  000055c4    00000094     drivers_cc26xxware.aem3 : PINCC26XX.oem3 (.text:PIN_open)
                  00005658    00000094                             : UARTCC26XX.oem3 (.text:writeFinishedDoCallback)
                  000056ec    00000094     rom_sysbios.aem3 : rom_sysbios.obj (.text:xdc_runtime_Text_putMod__E)
                  00005780    00000090     drivers_cc26xxware.aem3 : PowerCC26XX.oem3 (.text:switchXOSCHFclockFunc)
                  00005810    0000008e     GPS.obj (.text:Latitude)
                  0000589e    0000008e     GPS.obj (.text:Longitude)
                  0000592c    0000008c     drivers_cc26xxware.aem3 : UARTCC26XX.oem3 (.text:UARTCC26XX_initIO)
                  000059b8    0000008c                             : UARTCC26XX.oem3 (.text:UARTCC26XX_writeCancel)
                  00005a44    0000008c     CoordinatorTask.obj (.text:updateNode)
                  00005ad0    00000088     CoordinatorTask.obj (.text:CoordinatorTask_init)
                  00005b58    00000088     grlib.aem3 : rectangle.oem3 (.text:GrRectFill)
                  00005be0    00000084     CoordinatorTask.obj (.text:packetReceivedCallback)
                  00005c64    00000084     rf_singleMode_cc26xxware.aem3 : RFCC26XX_singleMode.oem3 (.text:swiFxnHw)
                  00005ce8    00000080                                   : RFCC26XX_singleMode.oem3 (.text:RF_pendCmd)
                  00005d68    0000007c     drivers_cc26xxware.aem3 : PowerCC26XX.oem3 (.text:disableLFClockQualifiers)
                  00005de4    0000007a     rtsv7M3_T_le_eabi.lib : memset_t2.obj (.text)
                  00005e5e    00000002     drivers_cc26xxware.aem3 : SPICC26XXDMA.oem3 (.text:SPICC26XXDMA_serviceISR)
                  00005e60    00000078     driverlib.lib : setup_rom.obj (.text:NOROM_SetupAfterColdResetWakeupFromShutDownCfg1)
                  00005ed8    00000078     drivers_cc26xxware.aem3 : UARTCC26XX.oem3 (.text:UARTCC26XX_close)
                  00005f50    00000074                             : PowerCC26XX_calibrateRCOSC.oem3 (.text:PowerCC26XX_auxISR)
                  00005fc4    00000074                             : PowerCC26XX_calibrateRCOSC.oem3 (.text:calibrateRcoscHf2)
                  00006038    00000074     rf_singleMode_cc26xxware.aem3 : RFCC26XX_singleMode.oem3 (.text:decActiveClientCnt)
                  000060ac    00000074                                   : RFCC26XX_singleMode.oem3 (.text:fsmPowerDownState)
                  00006120    00000074     rom_sysbios.aem3 : rom_sysbios.obj (.text:ti_sysbios_family_arm_cc26xx_Timer_start__E)
                  00006194    00000074     drivers_cc26xxware.aem3 : UARTCC26XX.oem3 (.text:writeTxFifoFlush)
                  00006208    00000070     driverlib.lib : chipinfo.obj (.text:NOROM_ChipInfo_GetHwRevision)
                  00006278    00000070     rom_sysbios.aem3 : rom_sysbios.obj (.text:ti_sysbios_knl_Event_post__E)
                  000062e8    0000006d                      : rom_sysbios.obj (.text:xdc_runtime_System_formatNum__I)
                  00006355    00000001     --HOLE-- [fill = 0]
                  00006356    00000002     rf_singleMode_cc26xxware.aem3 : RFCC26XX_singleMode.oem3 (.text:defaultErrCb)
                  00006358    0000006c     driverlib.lib : setup_rom.obj (.text:NOROM_SetupGetTrimForAmpcompCtrl)
                  000063c4    0000006c     drivers_cc26xxware.aem3 : PINCC26XX.oem3 (.text:PIN_add)
                  00006430    0000006c                             : PowerCC26XX.oem3 (.text:PowerCC26XX_calibrate)
                  0000649c    0000006c                             : UARTCC26XX.oem3 (.text:UARTCC26XX_readCancel)
                  00006508    00000068     driverlib.lib : setup_rom.obj (.text:NOROM_SetupGetTrimForAnabypassValue1)
                  00006570    00000068                   : sys_ctrl.obj (.text:NOROM_SysCtrl_DCDC_VoltageConditionalControl)
                  000065d8    00000068     rf_singleMode_cc26xxware.aem3 : RFCC26XX_singleMode.oem3 (.text:RF_getCurrentTime)
                  00006640    00000068     GPS.obj (.text:comparePackets)
                  000066a8    00000068     rtsv7M3_T_le_eabi.lib : copy_decompress_lzss.obj (.text:decompress:lzss)
                  00006710    00000064     drivers_cc26xxware.aem3 : UARTCC26XX.oem3 (.text:UARTCC26XX_control)
                  00006774    00000064     CoordinatorTask.obj (.text:coordinatorTaskFunction)
                  000067d8    00000060     display.aem3 : DisplaySharp.oem3 (.text:DisplaySharp_clearLines)
                  00006838    00000060     drivers_cc26xxware.aem3 : PowerCC26XX_calibrateRCOSC.oem3 (.text:PowerCC26XX_RCOSC_clockFunc)
                  00006898    00000060                             : SPICC26XXDMA.oem3 (.text:SPICC26XXDMA_initHw)
                  000068f8    00000060     rf_singleMode_cc26xxware.aem3 : RFCC26XX_singleMode.oem3 (.text:fsmXOSCState)
                  00006958    00000060     drivers_cc26xxware.aem3 : PowerCC26XX_calibrateRCOSC.oem3 (.text:updateSubSecInc)
                  000069b8    0000005c     driverlib.lib : osc.obj (.text:NOROM_OSCHF_AttemptToSwitchToXosc)
                  00006a14    0000005c                   : sys_ctrl.obj (.text:NOROM_SysCtrlAdjustRechargeAfterPowerDown)
                  00006a70    0000005c     drivers_cc26xxware.aem3 : PINCC26XX.oem3 (.text:PIN_remove)
                  00006acc    0000005c                             : UDMACC26XX.oem3 (.text:UDMACC26XX_open)
                  00006b28    0000005c     SeniorProj_pem3.oem3 (.text:xdc_runtime_Startup_getState__I)
                  00006b84    0000005b     rom_sysbios.aem3 : rom_sysbios.obj (.text:xdc_runtime_Text_putLab__E)
                  00006bdf    00000001     --HOLE-- [fill = 0]
                  00006be0    0000005a     drivers_cc26xxware.aem3 : SPICC26XXDMA.oem3 (.text:SPICC26XXDMA_close)
                  00006c3a    00000058     display.aem3 : DisplayUart.oem3 (.text:DisplayUart_put5)
                  00006c92    00000002     drivers_cc26xxware.aem3 : PowerCC26XX.oem3 (.text:emptyClockFunc)
                  00006c94    00000058                             : PowerCC26XX_calibrateRCOSC.oem3 (.text:PowerCC26XX_initiateCalibration)
                  00006cec    00000058     lcd.aem3 : SharpGrLib.oem3 (.text:SharpGrLib_lineDrawV)
                  00006d44    00000058     CoordinatorTask.obj (.text:isKnownNodeAddress)
                  00006d9c    00000058     CoordinatorRFTask.obj (.text:sendAck)
                  00006df4    00000054     drivers_cc26xxware.aem3 : SPICC26XXDMA.oem3 (.text:SPICC26XXDMA_swiFxn)
                  00006e48    00000054                             : PowerCC26XX.oem3 (.text:configureXOSCHF)
                  00006e9c    00000054     rf_singleMode_cc26xxware.aem3 : RFCC26XX_singleMode.oem3 (.text:hwiFxnHw)
                  00006ef0    00000054                                   : RFCC26XX_singleMode.oem3 (.text:ratChanFree)
                  00006f44    00000050     driverlib.lib : setup_rom.obj (.text:NOROM_SetupSetCacheModeAccordingToCcfgSetting)
                  00006f94    00000050     rf_singleMode_cc26xxware.aem3 : RFCC26XX_singleMode.oem3 (.text:dispatchOpWhen)
                  00006fe4    00000050                                   : RFCC26XX_singleMode.oem3 (.text:syncCb)
                  00007034    0000004e     grlib.aem3 : line.oem3 (.text:GrLineDrawH)
                  00007082    0000004c     display.aem3 : DisplayUart.oem3 (.text:DisplayUart_open)
                  000070ce    00000002     smartrf_settings.obj (.text:enterGenfskSysPatch)
                  000070d0    0000004c     driverlib.lib : chipinfo.obj (.text:NOROM_ChipInfo_GetChipType)
                  0000711c    0000004c                   : osc.obj (.text:NOROM_OSCClockSourceSet)
                  00007168    0000004c     rf_singleMode_cc26xxware.aem3 : RFCC26XX_singleMode.oem3 (.text:applyRfCorePatch)
                  000071b4    0000004c     rtsv7M3_T_le_eabi.lib : cpy_tbl.obj (.text)
                  00007200    0000004c     drivers_cc26xxware.aem3 : UARTCC26XX.oem3 (.text:startTxFifoEmptyClk)
                  0000724c    0000004a     display.aem3 : DisplaySharp.oem3 (.text:DisplaySharp_close)
                  00007296    0000004a     lcd.aem3 : SharpGrLib.oem3 (.text:SharpGrLib_drawMultiple)
                  000072e0    00000048     display.aem3 : Display.oem3 (.text:Display_doOpen)
                  00007328    00000048     GPS.obj (.text:EastWest)
                  00007370    00000048     driverlib.lib : chipinfo.obj (.text:NOROM_ChipInfo_GetChipFamily)
                  000073b8    00000048                   : ddi.obj (.text:NOROM_DDI16BitfieldWrite)
                  00007400    00000048     GPS.obj (.text:NorthSouth)
                  00007448    00000048     drivers_cc26xxware.aem3 : PINCC26XX.oem3 (.text:PIN_setOutputEnable)
                  00007490    00000048                             : PINCC26XX.oem3 (.text:PIN_swi)
                  000074d8    00000048     rf_singleMode_cc26xxware.aem3 : RFCC26XX_singleMode.oem3 (.text:RF_runCmd)
                  00007520    00000048     GPS.obj (.text:Status)
                  00007568    00000048     GPS.obj (.text:Time)
                  000075b0    00000048     SeniorProj.obj (.text:main)
                  000075f8    00000048     drivers_cc26xxware.aem3 : PowerCC26XX.oem3 (.text:notify)
                  00007640    00000046                             : RingBuf.oem3 (.text:RingBuf_put)
                  00007686    00000002     smartrf_settings_predefined.obj (.text:enterGenfskSysPatch)
                  00007688    00000044     boot.aem3 : boot.oem3 (.text)
                  000076cc    00000044     rom_sysbios.aem3 : rom_sysbios.obj (.text:xdc_runtime_Text_xprintf__I)
                  00007710    00000042     lcd.aem3 : SharpGrLib.oem3 (.text:SharpGrLib_pixelDraw)
                  00007752    00000002     rtsv7M3_T_le_eabi.lib : i_div0.obj (.text)
                  00007754    00000040     driverlib.lib : ddi.obj (.text:NOROM_DDI16BitfieldRead)
                  00007794    00000040     drivers_cc26xxware.aem3 : RingBuf.oem3 (.text:RingBuf_get)
                  000077d4    00000040     rtsv7M3_T_le_eabi.lib : u_divt2.obj (.text)
                  00007814    0000003c     driverlib.lib : osc.obj (.text:NOROM_OSC_HPOSCRelativeFrequencyOffsetGet)
                  00007850    0000003c                   : rfc.obj (.text:NOROM_RFCSynthPowerDown)
                  0000788c    0000003c     drivers_cc26xxware.aem3 : PINCC26XX.oem3 (.text:PINCC26XX_getConfig)
                  000078c8    0000003c                             : PINCC26XX.oem3 (.text:PIN_setOutputValue)
                  00007904    0000003c                             : SPICC26XXDMA.oem3 (.text:SPICC26XXDMA_csnCallback)
                  00007940    0000003c                             : UARTCC26XX.oem3 (.text:UARTCC26XX_swiIntFxn)
                  0000797c    0000003c     CoordinatorTask.obj (.text:addNewNode)
                  000079b8    0000003c     smartrf_settings.obj (.text:configureGenfskPatch)
                  000079f4    0000003c     smartrf_settings_predefined.obj (.text:configureGenfskPatch)
                  00007a30    00000038     drivers_cc26xxware.aem3 : PINCC26XX.oem3 (.text:PIN_setInterrupt)
                  00007a68    00000038                             : UART.oem3 (.text:UART_init)
                  00007aa0    00000038                             : UARTCC26XX.oem3 (.text:readData)
                  00007ad8    00000038     rom_sysbios.aem3 : rom_sysbios.obj (.text:ti_sysbios_family_arm_cc26xx_Timer_getCurrentTick__E)
                  00007b10    00000038     drivers_cc26xxware.aem3 : UARTCC26XX.oem3 (.text:writeData)
                  00007b48    00000036                             : UDMACC26XX.oem3 (.text:UDMACC26XX_close)
                  00007b7e    00000036     rf_singleMode_cc26xxware.aem3 : RFCC26XX_singleMode.oem3 (.text:updateImplicitState)
                  00007bb4    00000034     GPS.obj (.text:GPS_init)
                  00007be8    00000034     driverlib.lib : osc.obj (.text:NOROM_OSCHF_SwitchToRcOscTurnOffXosc)
                  00007c1c    00000034     drivers_cc26xxware.aem3 : PINCC26XX.oem3 (.text:PIN_setConfig)
                  00007c50    00000034     rf_singleMode_cc26xxware.aem3 : RFCC26XX_singleMode.oem3 (.text:Q_push)
                  00007c84    00000034     drivers_cc26xxware.aem3 : UARTCC26XX.oem3 (.text:readData2RingBuf)
                  00007cb8    00000034     rom_sysbios.aem3 : rom_sysbios.obj (.text:ti_sysbios_family_arm_cc26xx_Timer_initDevice__I)
                  00007cec    00000032     display.aem3 : DisplaySharp.oem3 (.text:DisplaySharp_clear)
                  00007d1e    00000032     rom_sysbios.aem3 : rom_sysbios.obj (.text:ti_sysbios_family_arm_cc26xx_Timer_setNextTick__E)
                  00007d50    00000030     driverlib.lib : setup_rom.obj (.text:NOROM_SetupSetAonRtcSubSecInc)
                  00007d80    00000030     drivers_cc26xxware.aem3 : PowerCC26XX.oem3 (.text:Power_releaseConstraint)
                  00007db0    00000030                             : PowerCC26XX.oem3 (.text:Power_setConstraint)
                  00007de0    00000030                             : SPI.oem3 (.text:SPI_open)
                  00007e10    00000030                             : UART.oem3 (.text:UART_open)
                  00007e40    00000030     rf_singleMode_cc26xxware.aem3 : RFCC26XX_singleMode.oem3 (.text:clkPowerUpFxn)
                  00007e70    00000030     SeniorProj_pem3.oem3 (.text:ti_sysbios_BIOS_atExitFunc__I)
                  00007ea0    00000030     SeniorProj_pem3.oem3 (.text:ti_sysbios_BIOS_startFunc__I)
                  00007ed0    00000030     rom_sysbios.aem3 : rom_sysbios.obj (.text:ti_sysbios_family_arm_cc26xx_Timer_setThreshold__I)
                  00007f00    0000002f                      : rom_sysbios.obj (.text:xdc_runtime_Text_printVisFxn__I)
                  00007f2f    00000001     --HOLE-- [fill = 0]
                  00007f30    0000002e     lcd.aem3 : SharpGrLib.oem3 (.text:SharpGrLib_initializeDisplayBuffer)
                  00007f5e    0000002e     SeniorProj_pem3.oem3 (.text:malloc)
                  00007f8c    0000002c     driverlib.lib : ddi.obj (.text:NOROM_DDI32RegWrite)
                  00007fb8    0000002c                   : setup_rom.obj (.text:NOROM_SetupGetTrimForRadcExtCfg)
                  00007fe4    0000002c     drivers_cc26xxware.aem3 : PINCC26XX.oem3 (.text:PINCC26XX_setMux)
                  00008010    0000002c     lcd.aem3 : SharpGrLib.oem3 (.text:SharpGrLib_init)
                  0000803c    0000002c     rf_singleMode_cc26xxware.aem3 : RFCC26XX_singleMode.oem3 (.text:getCmd)
                  00008068    0000002c     rom_sysbios.aem3 : rom_sysbios.obj (.text:ti_sysbios_knl_Clock_getTicksUntilInterrupt__E)
                  00008094    0000002c     SeniorProj_pem3.oem3 (.text:ti_sysbios_knl_Event_construct)
                  000080c0    0000002c     rom_sysbios.aem3 : rom_sysbios.obj (.text:ti_sysbios_knl_Event_pendTimeout__I)
                  000080ec    0000002a                      : rom_sysbios.obj (.text:xdc_runtime_System_putchar__I)
                  00008116    00000002                      : rom_sysbios.obj (.text:ti_sysbios_BIOS_linkedWithIncorrectBootLibrary__E)
                  00008118    00000028     driverlib.lib : aon_batmon.obj (.text:NOROM_AONBatMonTemperatureGetDegC)
                  00008140    00000028     drivers_cc26xxware.aem3 : PowerCC26XX.oem3 (.text:Power_registerNotify)
                  00008168    00000028     rf_singleMode_cc26xxware.aem3 : RFCC26XX_singleMode.oem3 (.text:Q_end)
                  00008190    00000028     drivers_cc26xxware.aem3 : SPICC26XXDMA.oem3 (.text:SPICC26XXDMA_flushFifos)
                  000081b8    00000028     driverlib.lib : adi.obj (.text:SafeHapiVoid)
                  000081e0    00000028     rtsv7M3_T_le_eabi.lib : strncmp.obj (.text)
                  00008208    00000026     display.aem3 : Display.oem3 (.text:Display_doPut5)
                  0000822e    00000026     drivers_cc26xxware.aem3 : List.oem3 (.text:List_put)
                  00008254    00000024                             : PINCC26XX.oem3 (.text:PINCC26XX_getPinCount)
                  00008278    00000024                             : PowerCC26XX_calibrateRCOSC.oem3 (.text:getTdcSemaphore)
                  0000829c    00000024     rf_singleMode_cc26xxware.aem3 : RFCC26XX_singleMode.oem3 (.text:hwiFxnCpe0PowerFsm)
                  000082c0    00000024     CoordinatorRFTask.obj (.text:notifyPacketReceived)
                  000082e4    00000024     SeniorProj_pem3.oem3 (.text:ti_sysbios_BIOS_registerRTSLock__I)
                  00008308    00000024     SeniorProj_pem3.oem3 (.text:ti_sysbios_BIOS_removeRTSLock__I)
                  0000832c    00000024     rom_sysbios.aem3 : rom_sysbios.obj (.text:ti_sysbios_family_arm_cc26xx_Timer_getMaxTicks__E)
                  00008350    00000022     grlib.aem3 : context.oem3 (.text:GrContextInit)
                  00008372    00000002     SeniorProj_pem3.oem3 (.text:ti_sysbios_BIOS_nullFunc__I)
                  00008374    00000020     driverlib.lib : rfc.obj (.text:NOROM_RFCDoorbellSendTo)
                  00008394    00000020                   : rfc.obj (.text:NOROM_RFCRfTrimRead)
                  000083b4    00000020                   : setup_rom.obj (.text:NOROM_SetupGetTrimForXoscHfCtl)
                  000083d4    00000020     drivers_cc26xxware.aem3 : PowerCC26XX.oem3 (.text:Power_unregisterNotify)
                  000083f4    00000020     rf_singleMode_cc26xxware.aem3 : RFCC26XX_singleMode.oem3 (.text:allocCmd)
                  00008414    00000020     SeniorProj_pem3.oem3 (.text:ti_sysbios_BIOS_rtsLock__I)
                  00008434    00000020     rom_sysbios.aem3 : rom_sysbios.obj (.text:ti_sysbios_family_arm_cc26xx_Timer_dynamicStub__E)
                  00008454    00000020                      : rom_sysbios.obj (.text:ti_sysbios_knl_Clock_stop__E)
                  00008474    00000020                      : rom_sysbios.obj (.text:ti_sysbios_knl_Event_checkEvents__I)
                  00008494    00000020                      : rom_sysbios.obj (.text:xdc_runtime_Registry_findById__E)
                  000084b4    0000001e     drivers_cc26xxware.aem3 : PINCC26XX.oem3 (.text:PIN_close)
                  000084d2    0000001e                             : PowerCC26XX.oem3 (.text:Power_getTransitionLatency)
                  000084f0    0000001c     driverlib.lib : osc.obj (.text:NOROM_OSCClockSourceGet)
                  0000850c    0000001c                   : setup_rom.obj (.text:NOROM_SetupGetTrimForAmpcompTh2)
                  00008528    0000001c                   : setup_rom.obj (.text:NOROM_SetupGetTrimForRcOscLfRtuneCtuneTrim)
                  00008544    0000001c     drivers_cc26xxware.aem3 : PINCC26XX.oem3 (.text:PINCC26XX_setIoCfgMux)
                  00008560    0000001c                             : PINCC26XX.oem3 (.text:PIN_hwi)
                  0000857c    0000001c                             : UDMACC26XX.oem3 (.text:UDMACC26XX_initHw)
                  00008598    0000001c     smartrf_settings.obj (.text:enterGenfskCpePatch)
                  000085b4    0000001c     smartrf_settings_predefined.obj (.text:enterGenfskCpePatch)
                  000085d0    0000001a     drivers_cc26xxware.aem3 : List.oem3 (.text:List_remove)
                  000085ea    0000001a     grlib.aem3 : string.oem3 (.text:NumLeadingZeros)
                  00008604    0000001a     rom_sysbios.aem3 : rom_sysbios_config.obj (.text:xdc_runtime_System_snprintf__E)
                  0000861e    00000018     display.aem3 : DisplayUart.oem3 (.text:DisplayUart_close)
                  00008636    00000002     rom_sysbios.aem3 : rom_sysbios.obj (.text:ti_sysbios_knl_Clock_triggerFunc__I)
                  00008638    00000018     driverlib.lib : aon_rtc.obj (.text:NOROM_AONRTCCurrentCompareValueGet)
                  00008650    00000018                   : chipinfo.obj (.text:NOROM_ChipInfo_GetPackageType)
                  00008668    00000018                   : osc.obj (.text:NOROM_OSCHF_TurnOnXosc)
                  00008680    00000018                   : rfc.obj (.text:NOROM_RFCCpeIntGetAndClear)
                  00008698    00000018                   : setup_rom.obj (.text:NOROM_SetupGetTrimForAdcShModeEn)
                  000086b0    00000018                   : setup_rom.obj (.text:NOROM_SetupGetTrimForAdcShVbufEn)
                  000086c8    00000018                   : setup_rom.obj (.text:NOROM_SetupGetTrimForAmpcompTh1)
                  000086e0    00000018                   : setup_rom.obj (.text:NOROM_SetupGetTrimForDblrLoopFilterResetVoltage)
                  000086f8    00000018                   : setup_rom.obj (.text:NOROM_SetupGetTrimForRcOscLfIBiasTrim)
                  00008710    00000018                   : setup_rom.obj (.text:NOROM_SetupGetTrimForXoscLfRegulatorAndCmirrwrRatio)
                  00008728    00000018     drivers_cc26xxware.aem3 : PINCC26XX.oem3 (.text:PIN_getConfig)
                  00008740    00000018                             : PowerCC26XX.oem3 (.text:Power_idleFunc)
                  00008758    00000018     rf_singleMode_cc26xxware.aem3 : RFCC26XX_singleMode.oem3 (.text:Q_pop)
                  00008770    00000018     drivers_cc26xxware.aem3 : UARTCC26XX.oem3 (.text:UARTCC26XX_init)
                  00008788    00000018                             : UART.oem3 (.text:UART_Params_init)
                  000087a0    00000018                             : PowerCC26XX.oem3 (.text:configureRFCoreClocks)
                  000087b8    00000018     lcd.aem3 : SharpGrLib.oem3 (.text:reverse)
                  000087d0    00000018     rtsv7M3_T_le_eabi.lib : args_main.obj (.text)
                  000087e8    00000018                           : ll_mul_t2.obj (.text)
                  00008800    00000018     rf_singleMode_cc26xxware.aem3 : RFCC26XX_singleMode.oem3 (.text:swiFxnFsm)
                  00008818    00000018     SeniorProj_pem3.oem3 (.text:ti_sysbios_BIOS_rtsUnlock__I)
                  00008830    00000018     rom_sysbios.aem3 : rom_sysbios.obj (.text:ti_sysbios_knl_Swi_or__E)
                  00008848    00000018     SeniorProj_pem3.oem3 (.text:ti_sysbios_rom_cortexm_cc26xx_CC26xx_checkRevision__E)
                  00008860    00000016     SeniorProj_pem3.oem3 (.text:ti_sysbios_BIOS_exitFunc__I)
                  00008876    00000016     CoordinatorRFTask.obj (.text:ti_sysbios_knl_Event_Params_init)
                  0000888c    00000016     CoordinatorTask.obj (.text:ti_sysbios_knl_Event_Params_init)
                  000088a2    00000016     EasyLink.obj (.text:ti_sysbios_knl_Semaphore_Params_init)
                  000088b8    00000016     CoordinatorRFTask.obj (.text:ti_sysbios_knl_Task_Params_init)
                  000088ce    00000016     CoordinatorTask.obj (.text:ti_sysbios_knl_Task_Params_init)
                  000088e4    00000016     GPS.obj (.text:ti_sysbios_knl_Task_Params_init)
                  000088fa    00000002     SeniorProj_pem3.oem3 (.text:ti_sysbios_rom_cortexm_cc26xx_CC26xx_badRomRevision__E)
                  000088fc    00000014     CoordinatorRFTask.obj (.text:CoordinatorRadioTask_registerPacketReceivedCallback)
                  00008910    00000014     driverlib.lib : aon_rtc.obj (.text:NOROM_AONRTCCurrent64BitValueGet)
                  00008924    00000014                   : chipinfo.obj (.text:NOROM_ThisCodeIsBuiltForCC26xxHwRev22AndLater_HaltIfViolated)
                  00008938    00000014     drivers_cc26xxware.aem3 : PINCC26XX.oem3 (.text:PINCC26XX_getOutputValue)
                  0000894c    00000014     rf_singleMode_cc26xxware.aem3 : RFCC26XX_singleMode.oem3 (.text:RF_Params_init)
                  00008960    00000014     drivers_cc26xxware.aem3 : SPI.oem3 (.text:SPI_Params_init)
                  00008974    00000014     rtsv7M3_T_le_eabi.lib : _lock.obj (.text)
                  00008988    00000014                           : strlen.obj (.text)
                  0000899c    00000014     SeniorProj_pem3.oem3 (.text:ti_sysbios_knl_Clock_doTick__I)
                  000089b0    00000014     rom_sysbios.aem3 : rom_sysbios.obj (.text:ti_sysbios_knl_Event_Instance_init__E)
                  000089c4    00000012     drivers_cc26xxware.aem3 : RingBuf.oem3 (.text:RingBuf_construct)
                  000089d6    00000012     SeniorProj_pem3.oem3 (.text:xdc_runtime_Startup_exec__I)
                  000089e8    00000010     rf_singleMode_cc26xxware.aem3 : RFCC26XX_singleMode.oem3 (.text:FsmDispatch)
                  000089f8    00000010     driverlib.lib : rfc.obj (.text:NOROM_RFCRfTrimSet)
                  00008a08    00000010                   : setup_rom.obj (.text:NOROM_SetupGetTrimForXoscHfFastStart)
                  00008a18    00000010                   : setup_rom.obj (.text:NOROM_SetupGetTrimForXoscHfIbiastherm)
                  00008a28    00000010     smartrf_settings.obj (.text:applyGenfskPatch)
                  00008a38    00000010     smartrf_settings_predefined.obj (.text:applyGenfskPatch)
                  00008a48    00000010     rom_sysbios.aem3 : rom_sysbios.obj (.text:ti_sysbios_family_arm_m3_Hwi_post__E)
                  00008a58    00000010     drivers_cc26xxware.aem3 : UARTCC26XX.oem3 (.text:uartPostNotify)
                  00008a68    00000010     rom_sysbios.aem3 : rom_sysbios.obj (.text:xdc_runtime_SysCallback_putch__E)
                  00008a78    00000010                      : rom_sysbios.obj (.text:xdc_runtime_SysCallback_ready__E)
                  00008a88    00000010                      : rom_sysbios.obj (.text:xdc_runtime_System_vsnprintf__E)
                  00008a98    0000000e     driverlib.lib : vims.obj (.text:NOROM_VIMSModeGet)
                  00008aa6    0000000e     drivers_cc26xxware.aem3 : SPICC26XXDMA.oem3 (.text:SPICC26XXDMA_init)
                  00008ab4    0000000e     rtsv7M3_T_le_eabi.lib : copy_decompress_none.obj (.text:decompress:none)
                  00008ac2    0000000e     rom_sysbios.aem3 : rom_sysbios.obj (.text:ti_sysbios_family_arm_cc26xx_TimestampProvider_get32__E)
                  00008ad0    0000000c     rf_singleMode_cc26xxware.aem3 : RFCC26XX_singleMode.oem3 (.text:FsmNextState)
                  00008adc    0000000c     driverlib.lib : cpu.obj (.text:NOROM_CPUcpsid)
                  00008ae8    0000000c                   : cpu.obj (.text:NOROM_CPUcpsie)
                  00008af4    0000000c     drivers_cc26xxware.aem3 : PINCC26XX.oem3 (.text:PIN_registerIntCb)
                  00008b00    0000000c                             : PowerCC26XX.oem3 (.text:Power_getConstraintMask)
                  00008b0c    0000000c                             : PowerCC26XX.oem3 (.text:Power_getDependencyCount)
                  00008b18    0000000c     rtsv7M3_T_le_eabi.lib : copy_zero_init.obj (.text:decompress:ZI)
                  00008b24    0000000c     drivers_cc26xxware.aem3 : SPICC26XXDMA.oem3 (.text:spiPostNotify)
                  00008b30    0000000c     SeniorProj_pem3.oem3 (.text:ti_sysbios_knl_Event_Params__init__S)
                  00008b3c    0000000c     CoordinatorRFTask.obj (.text:ti_sysbios_knl_Event_handle)
                  00008b48    0000000c     CoordinatorTask.obj (.text:ti_sysbios_knl_Event_handle)
                  00008b54    0000000c     rom_sysbios.aem3 : rom_sysbios.obj (.text:ti_sysbios_knl_Swi_getTrigger__E)
                  00008b60    0000000c     SeniorProj_pem3.oem3 (.text:xdc_runtime_Startup_reset__I)
                  00008b6c    0000000c     rom_sysbios.aem3 : rom_sysbios.obj (.text:xdc_runtime_Startup_rtsDone__E)
                  00008b78    0000000a     drivers_cc26xxware.aem3 : List.oem3 (.text:List_empty)
                  00008b82    0000000a                             : SPI.oem3 (.text:SPI_close)
                  00008b8c    0000000a                             : SPI.oem3 (.text:SPI_transfer)
                  00008b96    0000000a     lcd.aem3 : SharpGrLib.oem3 (.text:SharpGrLib_colorTranslate)
                  00008ba0    0000000a     drivers_cc26xxware.aem3 : UART.oem3 (.text:UART_close)
                  00008baa    0000000a                             : UART.oem3 (.text:UART_read)
                  00008bb4    0000000a                             : UART.oem3 (.text:UART_write)
                  00008bbe    0000000a                             : UDMACC26XX.oem3 (.text:UDMACC26XX_hwiIntFxn)
                  00008bc8    00000008     display.aem3 : DisplaySharp.oem3 (.text:DisplaySharp_getType)
                  00008bd0    00000008     drivers_cc26xxware.aem3 : SPICC26XXDMA.oem3 (.text:SPICC26XXDMA_transferCallback)
                  00008bd8    00000008                             : UARTCC26XX.oem3 (.text:readSemCallback)
                  00008be0    00000008     smartrf_settings.obj (.text:rf_patch_cpe_genfsk)
                  00008be8    00000008     smartrf_settings_predefined.obj (.text:rf_patch_cpe_genfsk)
                  00008bf0    00000008     drivers_cc26xxware.aem3 : UARTCC26XX.oem3 (.text:writeSemCallback)
                  00008bf8    00000008     SeniorProj_pem3.oem3 (.text:xdc_runtime_Text_visitRope__I)
                  00008c00    00000006     display.aem3 : DisplayUart.oem3 (.text:DisplayUart_control)
                  00008c06    00000006                  : DisplayUart.oem3 (.text:DisplayUart_getType)
                  00008c0c    00000006                  : Display.oem3 (.text:Display_doParamsInit)
                  00008c12    00000006     drivers_cc26xxware.aem3 : UARTCC26XX.oem3 (.text:UARTCC26XX_readPolling)
                  00008c18    00000006                             : UARTCC26XX.oem3 (.text:UARTCC26XX_writePolling)
                  00008c1e    00000006     rf_singleMode_cc26xxware.aem3 : RFCC26XX_singleMode.oem3 (.text:clkInactivityFxn)
                  00008c24    00000006     rom_sysbios.aem3 : rom_sysbios.obj (.text:ti_sysbios_family_arm_m3_Hwi_setFunc__E)
                  00008c2a    00000004     tirtosport.aem3 : HwiP_tirtos.oem3 (.text:HwiP_disable)
                  00008c2e    00000004     drivers_cc26xxware.aem3 : List.oem3 (.text:List_head)
                  00008c32    00000004                             : List.oem3 (.text:List_next)
                  00008c36    00000004     rf_singleMode_cc26xxware.aem3 : RFCC26XX_singleMode.oem3 (.text:Q_peek)
                  00008c3a    00000004     drivers_cc26xxware.aem3 : PowerCC26XX.oem3 (.text:nopResourceHandler)
                  00008c3e    00000004     rom_sysbios.aem3 : rom_sysbios.obj (.text:ti_sysbios_family_arm_cc26xx_Timer_getCount64__E)
                  00008c42    00000004                      : rom_sysbios.obj (.text:xdc_runtime_SysCallback_defaultReady)
                  00008c46    00000004                      : rom_sysbios.obj (.text:xdc_runtime_System_snprintf_va__F)
                  00008c4a    00000002                      : rom_sysbios.obj (.text:xdc_runtime_SysCallback_defaultAbort)
                  00008c4c    00000002                      : rom_sysbios.obj (.text:xdc_runtime_SysCallback_defaultExit)
                  00008c4e    00000002                      : rom_sysbios.obj (.text:xdc_runtime_SysCallback_defaultPutch)
                  00008c50    00000008     (.tramp.xdc_runtime_Core_assignParams__I.1)
                  00008c58    00000008     (.tramp.xdc_runtime_Startup_startMods__I.1)
                  00008c60    00000008     (.tramp.ti_sysbios_knl_Queue_construct.1)
                  00008c68    00000008     (.tramp.ti_sysbios_knl_Clock_logTick__E.1)
                  00008c70    00000008     (.tramp.ti_sysbios_knl_Task_Params__init__S.1)
                  00008c78    00000008     (.tramp.ti_sysbios_BIOS_RtsGateProxy_leave__E.1)
                  00008c80    00000008     (.tramp.ti_sysbios_BIOS_RtsGateProxy_enter__E.1)
                  00008c88    00000008     (.tramp.xdc_runtime_Core_constructObject__I.1)
                  00008c90    00000008     (.tramp.xdc_runtime_Memory_alloc__E.1)
                  00008c98    00000008     (.tramp.ti_sysbios_knl_Task_startup__E.1)
                  00008ca0    00000008     (.tramp.ti_sysbios_knl_Swi_startup__E.1)
                  00008ca8    00000008     (.tramp.ti_sysbios_hal_Hwi_startup__E.1)
                  00008cb0    00000008     (.tramp.ti_sysbios_family_arm_cc26xx_Timer_startup__E.1)
                  00008cb8    00000008     (.tramp.xdc_runtime_System_atexit__E.1)
                  00008cc0    00000008     (.tramp.ti_sysbios_BIOS_setThreadType__E.1)
                  00008cc8    00000008     (.tramp.xdc_runtime_System_exit__E.1)
                  00008cd0    00000008     (.tramp.ti_sysbios_BIOS_start__E.1)
                  00008cd8    00000008     (.tramp.ti_sysbios_knl_Task_unblockI__E.1)
                  00008ce0    00000008     (.tramp.ti_sysbios_knl_Queue_remove__E.1)
                  00008ce8    00000008     (.tramp.ti_sysbios_knl_Queue_head__E.1)
                  00008cf0    00000008     (.tramp.ti_sysbios_knl_Queue_empty__E.1)
                  00008cf8    00000008     (.tramp.ti_sysbios_knl_Clock_scheduleNextTick__E.1)
                  00008d00    00000008     (.tramp.ti_sysbios_knl_Clock_walkQueueDynamic__E.1)
                  00008d08    00000008     (.tramp.ti_sysbios_knl_Clock_TimerProxy_getCurrentTick__E.1)
                  00008d10    00000008     (.tramp.ti_sysbios_knl_Task_construct.1)
                  00008d18    00000008     (.tramp.ti_sysbios_family_arm_m3_Hwi_enableInterrupt__E.1)
                  00008d20    00000008     (.tramp.ti_sysbios_BIOS_getCpuFreq__E.1)
                  00008d28    00000008     (.tramp.ti_sysbios_knl_Clock_removeI__E.1)
                  00008d30    00000008     (.tramp.ti_sysbios_knl_Clock_startI__E.1)
                  00008d38    00000008     (.tramp.ti_sysbios_knl_Task_blockI__E.1)
                  00008d40    00000008     (.tramp.ti_sysbios_knl_Queue_enqueue__E.1)
                  00008d48    00000008     (.tramp.ti_sysbios_knl_Task_self__E.1)
                  00008d50    00000008     (.tramp.ti_sysbios_knl_Clock_addI__E.1)
                  00008d58    00000008     (.tramp.ti_sysbios_family_arm_m3_Hwi_destruct.1)
                  00008d60    00000008     (.tramp.ti_sysbios_knl_Swi_destruct.1)
                  00008d68    00000008     (.tramp.ti_sysbios_knl_Clock_destruct.1)
                  00008d70    00000008     (.tramp.ti_sysbios_knl_Semaphore_destruct.1)
                  00008d78    00000008     (.tramp.ti_sysbios_knl_Swi_post__E.1)
                  00008d80    00000008     (.tramp.xdc_runtime_System_abortSpin__E.1)
                  00008d88    00000008     (.tramp.ti_sysbios_knl_Clock_construct.1)
                  00008d90    00000008     (.tramp.ti_sysbios_knl_Clock_Params__init__S.1)
                  00008d98    00000008     (.tramp.ti_sysbios_knl_Swi_construct.1)
                  00008da0    00000008     (.tramp.ti_sysbios_knl_Swi_Params__init__S.1)
                  00008da8    00000008     (.tramp.ti_sysbios_family_arm_m3_Hwi_construct.1)
                  00008db0    00000008     (.tramp.ti_sysbios_family_arm_m3_Hwi_Params__init__S.1)
                  00008db8    00000008     (.tramp.ti_sysbios_knl_Semaphore_construct.1)
                  00008dc0    00000008     (.tramp.ti_sysbios_knl_Semaphore_Params__init__S.1)
                  00008dc8    00000008     (.tramp.ti_sysbios_knl_Task_restore__E.1)
                  00008dd0    00000008     (.tramp.ti_sysbios_knl_Swi_restore__E.1)
                  00008dd8    00000008     (.tramp.ti_sysbios_knl_Swi_disable__E.1)
                  00008de0    00000008     (.tramp.ti_sysbios_knl_Task_disable__E.1)
                  00008de8    00000008     (.tramp.ti_sysbios_knl_Semaphore_create.1)
                  00008df0    00000008     (.tramp.xdc_runtime_Error_init__E.1)
                  00008df8    00000008     (.tramp.ti_sysbios_knl_Semaphore_post__E.1)
                  00008e00    00000008     (.tramp.ti_sysbios_knl_Semaphore_pend__E.1)
                  00008e08    00000008     (.tramp.ti_sysbios_knl_Clock_start__E.1)
                  00008e10    00000008     (.tramp.ti_sysbios_knl_Clock_setTimeout__E.1)
                  00008e18    00000008     (.tramp.ti_sysbios_family_arm_m3_Hwi_restoreFxn__E.1)
                  00008e20    00000008     (.tramp.ti_sysbios_family_arm_m3_Hwi_disableFxn__E.1)
                  00008e28    00000008     (.tramp.ti_sysbios_knl_Task_sleep__E.1)
                  00008e30    00000008     (.tramp.xdc_runtime_System_abort__E.1)

.const     0    00008e38    000025c1     
                  00008e38    00000730     smartrf_settings.obj (.const:patchGenfskMce)
                  00009568    00000730     smartrf_settings_predefined.obj (.const:patchGenfskMce)
                  00009c98    000006bc     smartrf_settings.obj (.const:patchGenfskRfe)
                  0000a354    000006bc     smartrf_settings_predefined.obj (.const:patchGenfskRfe)
                  0000aa10    000002f8     grlib.aem3 : fontfixed6x8.oem3 (.const:.string:g_pucFontFixed6x8Data)
                  0000ad08    00000118     smartrf_settings.obj (.const:patchImageGenfsk)
                  0000ae20    00000118     smartrf_settings_predefined.obj (.const:patchImageGenfsk)
                  0000af38    000000c8     grlib.aem3 : fontfixed6x8.oem3 (.const:g_sFontFixed6x8)
                  0000b000    00000054     drivers_cc26xxware.aem3 : SPICC26XXDMA.oem3 (.const)
                  0000b054    0000004c                             : PowerCC26XX.oem3 (.const:resourceDB)
                  0000b0a0    00000048     SeniorProj_pem3.oem3 (.const:.string)
                  0000b0e8    00000040     drivers_cc26xxware.aem3 : UARTCC26XX.oem3 (.const)
                  0000b128    00000038     CC2650_LAUNCHXL.obj (.const:spiCC26XXDMAHWAttrs)
                  0000b160    0000002c     CC2650_LAUNCHXL.obj (.const:BoardGpioInitTable)
                  0000b18c    00000028     drivers_cc26xxware.aem3 : UARTCC26XX.oem3 (.const:UARTCC26XX_fxnTable)
                  0000b1b4    00000024     CC2650_LAUNCHXL.obj (.const:Display_config)
                  0000b1d8    00000024     CC2650_LAUNCHXL.obj (.const:SPI_config)
                  0000b1fc    00000024     drivers_cc26xxware.aem3 : UART.oem3 (.const:UART_defaultParams)
                  0000b220    00000024     display.aem3 : DisplaySharp.oem3 (.const)
                  0000b244    00000024     SeniorProj_pem3.oem3 (.const:xdc_runtime_Startup_sfxnTab__A)
                  0000b268    00000020     drivers_cc26xxware.aem3 : SPI.oem3 (.const)
                  0000b288    00000020     lcd.aem3 : SharpGrLib.oem3 (.const)
                  0000b2a8    00000020     SeniorProj_pem3.oem3 (.const:ti_sysbios_knl_Event_Object__DESC__C)
                  0000b2c8    00000020     CC2650_LAUNCHXL.obj (.const:uartCC26XXHWAttrs)
                  0000b2e8    0000001c     display.aem3 : DisplayUart.oem3 (.const)
                  0000b304    00000018     CC2650_LAUNCHXL.obj (.const:UART_config)
                  0000b31c    00000018     SeniorProj_pem3.oem3 (.const:ti_sysbios_knl_Event_Object__PARAMS__C)
                  0000b334    00000014     CC2650_LAUNCHXL.obj (.const:displayUartHWAttrs)
                  0000b348    00000014     rf_singleMode_cc26xxware.aem3 : RFCC26XX_singleMode.oem3 (.const)
                  0000b35c    00000012     SeniorProj_pem3.oem3 (.const:xdc_runtime_Startup_sfxnRts__A)
                  0000b36e    00000010     lcd.aem3 : SharpGrLib.oem3 (.const:.string)
                  0000b37e    00000002     SeniorProj_pem3.oem3 (.const:xdc_runtime_Text_registryModsLastId__C)
                  0000b380    00000010     CC2650_LAUNCHXL.obj (.const:PowerCC26XX_config)
                  0000b390    00000010     CC2650_LAUNCHXL.obj (.const:UDMACC26XX_config)
                  0000b3a0    00000010     CC2650_LAUNCHXL.obj (.const:displaySharpHWattrs)
                  0000b3b0    0000000c     SeniorProj_pem3.oem3 (.const:xdc_runtime_Startup_firstFxns__A)
                  0000b3bc    00000008     CC2650_LAUNCHXL.obj (.const:PINCC26XX_hwAttrs)
                  0000b3c4    00000008     CC2650_LAUNCHXL.obj (.const:udmaHWAttrs)
                  0000b3cc    00000005     GPS.obj (.const:.string:$P$T0$1)
                  0000b3d1    00000004     CC2650_LAUNCHXL.obj (.const:RFCC26XX_hwAttrs)
                  0000b3d5    00000001     display.aem3 : Display.oem3 (.const)
                  0000b3d6    00000002     SeniorProj_pem3.oem3 (.const:xdc_runtime_Text_unnamedModsLastId__C)
                  0000b3d8    00000004     SeniorProj_pem3.oem3 (.const:ti_sysbios_knl_Clock_tickPeriod__C)
                  0000b3dc    00000004     SeniorProj_pem3.oem3 (.const:ti_sysbios_knl_Clock_triggerClock__C)
                  0000b3e0    00000004     SeniorProj_pem3.oem3 (.const:ti_sysbios_knl_Event_Instance_State_pendQ__O)
                  0000b3e4    00000004     SeniorProj_pem3.oem3 (.const:ti_sysbios_knl_Idle_funcList__A)
                  0000b3e8    00000004     SeniorProj_pem3.oem3 (.const:xdc_runtime_SysCallback_putchFxn__C)
                  0000b3ec    00000004     SeniorProj_pem3.oem3 (.const:xdc_runtime_SysCallback_readyFxn__C)
                  0000b3f0    00000004     SeniorProj_pem3.oem3 (.const:xdc_runtime_System_extendFxn__C)
                  0000b3f4    00000004     SeniorProj_pem3.oem3 (.const:xdc_runtime_Text_visitRopeFxn__C)
                  0000b3f8    00000001     SeniorProj_pem3.oem3 (.const:xdc_runtime_Text_charTab__A)

.cinit     0    0000b400    00000388     
                  0000b400    00000211     (.cinit..data.load) [load image, compression = lzss]
                  0000b611    00000028     (.cinit..data:ti_sysbios_family_arm_m3_Hwi_Module__state__V.load) [load image, compression = lzss]
                  0000b639    00000021     (.cinit..data:ti_sysbios_knl_Task_Module__state__V.load) [load image, compression = lzss]
                  0000b65a    0000001f     (.cinit..data:ti_sysbios_BIOS_Module__state__V.load) [load image, compression = lzss]
                  0000b679    0000001e     (.cinit..data:ti_sysbios_knl_Clock_Module__state__V.load) [load image, compression = lzss]
                  0000b697    00000010     (.cinit..data:ti_sysbios_knl_Swi_Module__state__V.load) [load image, compression = lzss]
                  0000b6a7    00000001     --HOLE-- [fill = 0]
                  0000b6a8    0000000c     (__TI_handler_table)
                  0000b6b4    0000000b     (.cinit..data:ti_sysbios_family_arm_cc26xx_Timer_Module__state__V.load) [load image, compression = lzss]
                  0000b6bf    00000001     --HOLE-- [fill = 0]
                  0000b6c0    00000008     (.cinit..TI.bound:dmaSpi0RxControlTableEntry.load) [load image, compression = zero_init]
                  0000b6c8    00000008     (.cinit..TI.bound:dmaSpi0TxControlTableEntry.load) [load image, compression = zero_init]
                  0000b6d0    00000008     (.cinit..TI.bound:dmaSpi1RxControlTableEntry.load) [load image, compression = zero_init]
                  0000b6d8    00000008     (.cinit..TI.bound:dmaSpi1TxControlTableEntry.load) [load image, compression = zero_init]
                  0000b6e0    00000008     (.cinit..bss.load) [load image, compression = zero_init]
                  0000b6e8    00000008     (.cinit..data:xdc_runtime_Memory_Module__state__V.load) [load image, compression = lzss]
                  0000b6f0    00000007     (.cinit..data:ti_sysbios_family_arm_cc26xx_TimestampProvider_Module__state__V.load) [load image, compression = lzss]
                  0000b6f7    00000007     (.cinit..data:xdc_runtime_Startup_Module__state__V.load) [load image, compression = lzss]
                  0000b6fe    00000007     (.cinit..data:xdc_runtime_System_Module__state__V.load) [load image, compression = lzss]
                  0000b705    00000003     --HOLE-- [fill = 0]
                  0000b708    00000080     (__TI_cinit_table)

.init_array 
*          0    00000000    00000000     UNINITIALIZED

.ccfg      0    0001ffa8    00000058     
                  0001ffa8    00000058     ccfg.obj (.ccfg:retain)

.resetVecs 
*          0    00000000    0000003c     
                  00000000    0000003c     SeniorProj_pem3.oem3 (.resetVecs)

.binit     0    00000000    00000000     

.const:ti_sysbios_knl_Task_Object__PARAMS__C 
*          0    00000100    0000003c     
                  00000100    0000003c     SeniorProj_pem3.oem3 (.const:ti_sysbios_knl_Task_Object__PARAMS__C)

.const:ti_sysbios_knl_Mailbox_Object__PARAMS__C 
*          0    0000013c    00000034     
                  0000013c    00000034     SeniorProj_pem3.oem3 (.const:ti_sysbios_knl_Mailbox_Object__PARAMS__C)

.const:ti_sysbios_family_arm_m3_Hwi_Object__PARAMS__C 
*          0    00000170    00000030     
                  00000170    00000030     SeniorProj_pem3.oem3 (.const:ti_sysbios_family_arm_m3_Hwi_Object__PARAMS__C)

.const:ti_sysbios_hal_Hwi_Object__PARAMS__C 
*          0    000001a0    0000002c     
                  000001a0    0000002c     SeniorProj_pem3.oem3 (.const:ti_sysbios_hal_Hwi_Object__PARAMS__C)

.const:ti_sysbios_heaps_HeapMem_Module__FXNS__C 
*          0    000001cc    00000028     
                  000001cc    00000028     SeniorProj_pem3.oem3 (.const:ti_sysbios_heaps_HeapMem_Module__FXNS__C)

.const:ti_sysbios_knl_Swi_Object__PARAMS__C 
*          0    000001f4    00000028     
                  000001f4    00000028     SeniorProj_pem3.oem3 (.const:ti_sysbios_knl_Swi_Object__PARAMS__C)

.const:ti_sysbios_gates_GateHwi_Module__FXNS__C 
*          0    0000021c    00000024     
                  0000021c    00000024     SeniorProj_pem3.oem3 (.const:ti_sysbios_gates_GateHwi_Module__FXNS__C)

.const:ti_sysbios_gates_GateMutex_Module__FXNS__C 
*          0    00000240    00000024     
                  00000240    00000024     SeniorProj_pem3.oem3 (.const:ti_sysbios_gates_GateMutex_Module__FXNS__C)

.const:ti_sysbios_heaps_HeapMem_Object__PARAMS__C 
*          0    00000264    00000024     
                  00000264    00000024     SeniorProj_pem3.oem3 (.const:ti_sysbios_heaps_HeapMem_Object__PARAMS__C)

.const:ti_sysbios_knl_Clock_Object__PARAMS__C 
*          0    00000288    00000024     
                  00000288    00000024     SeniorProj_pem3.oem3 (.const:ti_sysbios_knl_Clock_Object__PARAMS__C)

.const:ti_sysbios_knl_Semaphore_Object__PARAMS__C 
*          0    000002ac    00000024     
                  000002ac    00000024     SeniorProj_pem3.oem3 (.const:ti_sysbios_knl_Semaphore_Object__PARAMS__C)

.const:ti_sysbios_family_arm_m3_Hwi_Object__DESC__C 
*          0    000002d0    00000020     
                  000002d0    00000020     SeniorProj_pem3.oem3 (.const:ti_sysbios_family_arm_m3_Hwi_Object__DESC__C)

.const:ti_sysbios_gates_GateHwi_Object__DESC__C 
*          0    000002f0    00000020     
                  000002f0    00000020     SeniorProj_pem3.oem3 (.const:ti_sysbios_gates_GateHwi_Object__DESC__C)

.const:ti_sysbios_gates_GateMutex_Object__DESC__C 
*          0    00000310    00000020     
                  00000310    00000020     SeniorProj_pem3.oem3 (.const:ti_sysbios_gates_GateMutex_Object__DESC__C)

.const:ti_sysbios_hal_Hwi_Object__DESC__C 
*          0    00000330    00000020     
                  00000330    00000020     SeniorProj_pem3.oem3 (.const:ti_sysbios_hal_Hwi_Object__DESC__C)

.const:ti_sysbios_heaps_HeapMem_Object__DESC__C 
*          0    00000350    00000020     
                  00000350    00000020     SeniorProj_pem3.oem3 (.const:ti_sysbios_heaps_HeapMem_Object__DESC__C)

.const:ti_sysbios_knl_Clock_Object__DESC__C 
*          0    00000370    00000020     
                  00000370    00000020     SeniorProj_pem3.oem3 (.const:ti_sysbios_knl_Clock_Object__DESC__C)

.const:ti_sysbios_knl_Mailbox_Object__DESC__C 
*          0    00000390    00000020     
                  00000390    00000020     SeniorProj_pem3.oem3 (.const:ti_sysbios_knl_Mailbox_Object__DESC__C)

.const:ti_sysbios_knl_Queue_Object__DESC__C 
*          0    000003b0    00000020     
                  000003b0    00000020     SeniorProj_pem3.oem3 (.const:ti_sysbios_knl_Queue_Object__DESC__C)

.const:ti_sysbios_knl_Semaphore_Object__DESC__C 
*          0    000003d0    00000020     
                  000003d0    00000020     SeniorProj_pem3.oem3 (.const:ti_sysbios_knl_Semaphore_Object__DESC__C)

.const:ti_sysbios_knl_Swi_Object__DESC__C 
*          0    000003f0    00000020     
                  000003f0    00000020     SeniorProj_pem3.oem3 (.const:ti_sysbios_knl_Swi_Object__DESC__C)

.const:ti_sysbios_knl_Task_Object__DESC__C 
*          0    00000410    00000020     
                  00000410    00000020     SeniorProj_pem3.oem3 (.const:ti_sysbios_knl_Task_Object__DESC__C)

.const:ti_sysbios_gates_GateHwi_Object__PARAMS__C 
*          0    00000430    00000018     
                  00000430    00000018     SeniorProj_pem3.oem3 (.const:ti_sysbios_gates_GateHwi_Object__PARAMS__C)

.const:ti_sysbios_gates_GateMutex_Object__PARAMS__C 
*          0    00000448    00000018     
                  00000448    00000018     SeniorProj_pem3.oem3 (.const:ti_sysbios_gates_GateMutex_Object__PARAMS__C)

.const:ti_sysbios_knl_Queue_Object__PARAMS__C 
*          0    00000460    00000018     
                  00000460    00000018     SeniorProj_pem3.oem3 (.const:ti_sysbios_knl_Queue_Object__PARAMS__C)

.const:ti_sysbios_knl_Idle_funcList__C 
*          0    00000478    00000008     
                  00000478    00000008     SeniorProj_pem3.oem3 (.const:ti_sysbios_knl_Idle_funcList__C)

.const:ti_sysbios_family_arm_cc26xx_Timer_startupNeeded__C 
*          0    00000484    00000004     
                  00000484    00000004     SeniorProj_pem3.oem3 (.const:ti_sysbios_family_arm_cc26xx_Timer_startupNeeded__C)

.const:ti_sysbios_family_arm_m3_Hwi_E_alreadyDefined__C 
*          0    00000488    00000004     
                  00000488    00000004     SeniorProj_pem3.oem3 (.const:ti_sysbios_family_arm_m3_Hwi_E_alreadyDefined__C)

.const:ti_sysbios_family_arm_m3_Hwi_E_hwiLimitExceeded__C 
*          0    0000048c    00000004     
                  0000048c    00000004     SeniorProj_pem3.oem3 (.const:ti_sysbios_family_arm_m3_Hwi_E_hwiLimitExceeded__C)

.const:ti_sysbios_family_arm_m3_Hwi_NUM_INTERRUPTS__C 
*          0    00000490    00000004     
                  00000490    00000004     SeniorProj_pem3.oem3 (.const:ti_sysbios_family_arm_m3_Hwi_NUM_INTERRUPTS__C)

.const:ti_sysbios_family_arm_m3_Hwi_Object__count__C 
*          0    00000494    00000004     
                  00000494    00000004     SeniorProj_pem3.oem3 (.const:ti_sysbios_family_arm_m3_Hwi_Object__count__C)

.const:ti_sysbios_family_arm_m3_Hwi_Object__table__C 
*          0    00000498    00000004     
                  00000498    00000004     SeniorProj_pem3.oem3 (.const:ti_sysbios_family_arm_m3_Hwi_Object__table__C)

.const:ti_sysbios_family_arm_m3_Hwi_ccr__C 
*          0    0000049c    00000004     
                  0000049c    00000004     SeniorProj_pem3.oem3 (.const:ti_sysbios_family_arm_m3_Hwi_ccr__C)

.const:ti_sysbios_family_arm_m3_Hwi_excHandlerFunc__C 
*          0    000004a0    00000004     
                  000004a0    00000004     SeniorProj_pem3.oem3 (.const:ti_sysbios_family_arm_m3_Hwi_excHandlerFunc__C)

.const:ti_sysbios_family_arm_m3_Hwi_nullIsrFunc__C 
*          0    000004a4    00000004     
                  000004a4    00000004     SeniorProj_pem3.oem3 (.const:ti_sysbios_family_arm_m3_Hwi_nullIsrFunc__C)

.const:ti_sysbios_family_arm_m3_Hwi_numSparseInterrupts__C 
*          0    000004a8    00000004     
                  000004a8    00000004     SeniorProj_pem3.oem3 (.const:ti_sysbios_family_arm_m3_Hwi_numSparseInterrupts__C)

.const:ti_sysbios_family_arm_m3_Hwi_priGroup__C 
*          0    000004ac    00000004     
                  000004ac    00000004     SeniorProj_pem3.oem3 (.const:ti_sysbios_family_arm_m3_Hwi_priGroup__C)

.const:ti_sysbios_family_arm_m3_TaskSupport_stackAlignment__C 
*          0    000004b0    00000004     
                  000004b0    00000004     SeniorProj_pem3.oem3 (.const:ti_sysbios_family_arm_m3_TaskSupport_stackAlignment__C)

.const:ti_sysbios_heaps_HeapMem_E_memory__C 
*          0    000004b4    00000004     
                  000004b4    00000004     SeniorProj_pem3.oem3 (.const:ti_sysbios_heaps_HeapMem_E_memory__C)

.const:ti_sysbios_heaps_HeapMem_Module__gateObj__C 
*          0    000004b8    00000004     
                  000004b8    00000004     SeniorProj_pem3.oem3 (.const:ti_sysbios_heaps_HeapMem_Module__gateObj__C)

.const:ti_sysbios_heaps_HeapMem_Object__count__C 
*          0    000004bc    00000004     
                  000004bc    00000004     SeniorProj_pem3.oem3 (.const:ti_sysbios_heaps_HeapMem_Object__count__C)

.const:ti_sysbios_heaps_HeapMem_Object__table__C 
*          0    000004c0    00000004     
                  000004c0    00000004     SeniorProj_pem3.oem3 (.const:ti_sysbios_heaps_HeapMem_Object__table__C)

.const:ti_sysbios_heaps_HeapMem_reqAlign__C 
*          0    000004c4    00000004     
                  000004c4    00000004     SeniorProj_pem3.oem3 (.const:ti_sysbios_heaps_HeapMem_reqAlign__C)

.const:ti_sysbios_knl_Clock_serviceMargin__C 
*          0    000004c8    00000004     
                  000004c8    00000004     SeniorProj_pem3.oem3 (.const:ti_sysbios_knl_Clock_serviceMargin__C)

.const:ti_sysbios_knl_Mailbox_Object__count__C 
*          0    000004cc    00000004     
                  000004cc    00000004     SeniorProj_pem3.oem3 (.const:ti_sysbios_knl_Mailbox_Object__count__C)

.const:ti_sysbios_knl_Mailbox_Object__table__C 
*          0    000004d0    00000004     
                  000004d0    00000004     SeniorProj_pem3.oem3 (.const:ti_sysbios_knl_Mailbox_Object__table__C)

.const:ti_sysbios_knl_Queue_Object__count__C 
*          0    000004d4    00000004     
                  000004d4    00000004     SeniorProj_pem3.oem3 (.const:ti_sysbios_knl_Queue_Object__count__C)

.const:ti_sysbios_knl_Queue_Object__table__C 
*          0    000004d8    00000004     
                  000004d8    00000004     SeniorProj_pem3.oem3 (.const:ti_sysbios_knl_Queue_Object__table__C)

.const:ti_sysbios_knl_Swi_Object__count__C 
*          0    000004dc    00000004     
                  000004dc    00000004     SeniorProj_pem3.oem3 (.const:ti_sysbios_knl_Swi_Object__count__C)

.const:ti_sysbios_knl_Swi_Object__table__C 
*          0    000004e0    00000004     
                  000004e0    00000004     SeniorProj_pem3.oem3 (.const:ti_sysbios_knl_Swi_Object__table__C)

.const:ti_sysbios_knl_Swi_numPriorities__C 
*          0    000004e4    00000004     
                  000004e4    00000004     SeniorProj_pem3.oem3 (.const:ti_sysbios_knl_Swi_numPriorities__C)

.const:ti_sysbios_knl_Task_Object__count__C 
*          0    000004e8    00000004     
                  000004e8    00000004     SeniorProj_pem3.oem3 (.const:ti_sysbios_knl_Task_Object__count__C)

.const:ti_sysbios_knl_Task_Object__table__C 
*          0    000004ec    00000004     
                  000004ec    00000004     SeniorProj_pem3.oem3 (.const:ti_sysbios_knl_Task_Object__table__C)

.const:ti_sysbios_knl_Task_allBlockedFunc__C 
*          0    000004f0    00000004     
                  000004f0    00000004     SeniorProj_pem3.oem3 (.const:ti_sysbios_knl_Task_allBlockedFunc__C)

.const:ti_sysbios_knl_Task_defaultStackHeap__C 
*          0    000004f4    00000004     
                  000004f4    00000004     SeniorProj_pem3.oem3 (.const:ti_sysbios_knl_Task_defaultStackHeap__C)

.const:ti_sysbios_knl_Task_defaultStackSize__C 
*          0    000004f8    00000004     
                  000004f8    00000004     SeniorProj_pem3.oem3 (.const:ti_sysbios_knl_Task_defaultStackSize__C)

.const:ti_sysbios_knl_Task_numConstructedTasks__C 
*          0    000004fc    00000004     
                  000004fc    00000004     SeniorProj_pem3.oem3 (.const:ti_sysbios_knl_Task_numConstructedTasks__C)

.const:ti_sysbios_family_arm_cc26xx_Timer_Module__id__C 
*          0    00000502    00000002     
                  00000502    00000002     SeniorProj_pem3.oem3 (.const:ti_sysbios_family_arm_cc26xx_Timer_Module__id__C)

.const:ti_sysbios_family_arm_cc26xx_TimestampProvider_useClockTimer__C 
*          0    00000504    00000002     
                  00000504    00000002     SeniorProj_pem3.oem3 (.const:ti_sysbios_family_arm_cc26xx_TimestampProvider_useClockTimer__C)

.const:ti_sysbios_family_arm_m3_Hwi_Module__id__C 
*          0    00000506    00000002     
                  00000506    00000002     SeniorProj_pem3.oem3 (.const:ti_sysbios_family_arm_m3_Hwi_Module__id__C)

.const:ti_sysbios_gates_GateHwi_Module__id__C 
*          0    00000508    00000002     
                  00000508    00000002     SeniorProj_pem3.oem3 (.const:ti_sysbios_gates_GateHwi_Module__id__C)

.const:ti_sysbios_gates_GateMutex_Module__id__C 
*          0    0000050a    00000002     
                  0000050a    00000002     SeniorProj_pem3.oem3 (.const:ti_sysbios_gates_GateMutex_Module__id__C)

.const:ti_sysbios_heaps_HeapMem_Module__id__C 
*          0    0000050c    00000002     
                  0000050c    00000002     SeniorProj_pem3.oem3 (.const:ti_sysbios_heaps_HeapMem_Module__id__C)

.const:ti_sysbios_knl_Task_initStackFlag__C 
*          0    0000050e    00000002     
                  0000050e    00000002     SeniorProj_pem3.oem3 (.const:ti_sysbios_knl_Task_initStackFlag__C)

.const:ti_sysbios_knl_Clock_tickMode__C 
*          0    00000510    00000001     
                  00000510    00000001     SeniorProj_pem3.oem3 (.const:ti_sysbios_knl_Clock_tickMode__C)

.const:xdc_runtime_Startup_firstFxns__C 
*          0    00000514    00000008     
                  00000514    00000008     SeniorProj_pem3.oem3 (.const:xdc_runtime_Startup_firstFxns__C)

.const:xdc_runtime_Startup_lastFxns__C 
*          0    0000051c    00000008     
                  0000051c    00000008     SeniorProj_pem3.oem3 (.const:xdc_runtime_Startup_lastFxns__C)

.const:xdc_runtime_Assert_E_assertFailed__C 
*          0    00000524    00000004     
                  00000524    00000004     SeniorProj_pem3.oem3 (.const:xdc_runtime_Assert_E_assertFailed__C)

.const:xdc_runtime_Error_E_memory__C 
*          0    00000528    00000004     
                  00000528    00000004     SeniorProj_pem3.oem3 (.const:xdc_runtime_Error_E_memory__C)

.const:xdc_runtime_Error_policyFxn__C 
*          0    0000052c    00000004     
                  0000052c    00000004     SeniorProj_pem3.oem3 (.const:xdc_runtime_Error_policyFxn__C)

.const:xdc_runtime_IGateProvider_Interface__BASE__C 
*          0    00000530    00000004     
                  00000530    00000004     SeniorProj_pem3.oem3 (.const:xdc_runtime_IGateProvider_Interface__BASE__C)

.const:xdc_runtime_IHeap_Interface__BASE__C 
*          0    00000534    00000004     
                  00000534    00000004     SeniorProj_pem3.oem3 (.const:xdc_runtime_IHeap_Interface__BASE__C)

.const:xdc_runtime_IModule_Interface__BASE__C 
*          0    00000538    00000004     
                  00000538    00000004     SeniorProj_pem3.oem3 (.const:xdc_runtime_IModule_Interface__BASE__C)

.const:xdc_runtime_Main_Module__diagsEnabled__C 
*          0    0000053c    00000004     
                  0000053c    00000004     SeniorProj_pem3.oem3 (.const:xdc_runtime_Main_Module__diagsEnabled__C)

.const:xdc_runtime_Main_Module__diagsIncluded__C 
*          0    00000540    00000004     
                  00000540    00000004     SeniorProj_pem3.oem3 (.const:xdc_runtime_Main_Module__diagsIncluded__C)

.const:xdc_runtime_Main_Module__diagsMask__C 
*          0    00000544    00000004     
                  00000544    00000004     SeniorProj_pem3.oem3 (.const:xdc_runtime_Main_Module__diagsMask__C)

.const:xdc_runtime_Memory_defaultHeapInstance__C 
*          0    00000548    00000004     
                  00000548    00000004     SeniorProj_pem3.oem3 (.const:xdc_runtime_Memory_defaultHeapInstance__C)

.const:xdc_runtime_Startup_execImpl__C 
*          0    0000054c    00000004     
                  0000054c    00000004     SeniorProj_pem3.oem3 (.const:xdc_runtime_Startup_execImpl__C)

.const:xdc_runtime_Startup_maxPasses__C 
*          0    00000550    00000004     
                  00000550    00000004     SeniorProj_pem3.oem3 (.const:xdc_runtime_Startup_maxPasses__C)

.const:xdc_runtime_Startup_sfxnRts__C 
*          0    00000554    00000004     
                  00000554    00000004     SeniorProj_pem3.oem3 (.const:xdc_runtime_Startup_sfxnRts__C)

.const:xdc_runtime_Startup_sfxnTab__C 
*          0    00000558    00000004     
                  00000558    00000004     SeniorProj_pem3.oem3 (.const:xdc_runtime_Startup_sfxnTab__C)

.const:xdc_runtime_Startup_startModsFxn__C 
*          0    0000055c    00000004     
                  0000055c    00000004     SeniorProj_pem3.oem3 (.const:xdc_runtime_Startup_startModsFxn__C)

.const:xdc_runtime_SysCallback_abortFxn__C 
*          0    00000560    00000004     
                  00000560    00000004     SeniorProj_pem3.oem3 (.const:xdc_runtime_SysCallback_abortFxn__C)

.const:xdc_runtime_SysCallback_exitFxn__C 
*          0    00000564    00000004     
                  00000564    00000004     SeniorProj_pem3.oem3 (.const:xdc_runtime_SysCallback_exitFxn__C)

.const:xdc_runtime_System_abortFxn__C 
*          0    00000568    00000004     
                  00000568    00000004     SeniorProj_pem3.oem3 (.const:xdc_runtime_System_abortFxn__C)

.const:xdc_runtime_System_exitFxn__C 
*          0    0000056c    00000004     
                  0000056c    00000004     SeniorProj_pem3.oem3 (.const:xdc_runtime_System_exitFxn__C)

.const:xdc_runtime_System_maxAtexitHandlers__C 
*          0    00000570    00000004     
                  00000570    00000004     SeniorProj_pem3.oem3 (.const:xdc_runtime_System_maxAtexitHandlers__C)

.const:xdc_runtime_Text_charTab__C 
*          0    00000574    00000004     
                  00000574    00000004     SeniorProj_pem3.oem3 (.const:xdc_runtime_Text_charTab__C)

.const:xdc_runtime_Text_nameEmpty__C 
*          0    00000578    00000004     
                  00000578    00000004     SeniorProj_pem3.oem3 (.const:xdc_runtime_Text_nameEmpty__C)

.const:xdc_runtime_Text_nameStatic__C 
*          0    0000057c    00000004     
                  0000057c    00000004     SeniorProj_pem3.oem3 (.const:xdc_runtime_Text_nameStatic__C)

.const:xdc_runtime_Text_nameUnknown__C 
*          0    00000580    00000004     
                  00000580    00000004     SeniorProj_pem3.oem3 (.const:xdc_runtime_Text_nameUnknown__C)

.const:xdc_runtime_Main_Module__id__C 
*          0    00000584    00000002     
                  00000584    00000002     SeniorProj_pem3.oem3 (.const:xdc_runtime_Main_Module__id__C)

.const:xdc_runtime_Memory_Module__id__C 
*          0    00000586    00000002     
                  00000586    00000002     SeniorProj_pem3.oem3 (.const:xdc_runtime_Memory_Module__id__C)

.const:xdc_runtime_Text_charCnt__C 
*          0    00000588    00000002     
                  00000588    00000002     SeniorProj_pem3.oem3 (.const:xdc_runtime_Text_charCnt__C)

.const:xdc_runtime_Text_isLoaded__C 
*          0    0000058a    00000002     
                  0000058a    00000002     SeniorProj_pem3.oem3 (.const:xdc_runtime_Text_isLoaded__C)

.const:xdc_runtime_Error_policy__C 
*          0    0000058c    00000001     
                  0000058c    00000001     SeniorProj_pem3.oem3 (.const:xdc_runtime_Error_policy__C)

.const:ti_sysbios_rom_ROM_AONRTCChannelEnable 
*          0    00000590    00000004     
                  00000590    00000004     SeniorProj_pem3.oem3 (.const:ti_sysbios_rom_ROM_AONRTCChannelEnable)

.const:ti_sysbios_rom_ROM_AONRTCCompareValueSet 
*          0    00000594    00000004     
                  00000594    00000004     SeniorProj_pem3.oem3 (.const:ti_sysbios_rom_ROM_AONRTCCompareValueSet)

.const:ti_sysbios_rom_ROM_AONRTCCurrentCompareValueGet 
*          0    00000598    00000004     
                  00000598    00000004     SeniorProj_pem3.oem3 (.const:ti_sysbios_rom_ROM_AONRTCCurrentCompareValueGet)

.const:ti_sysbios_rom_ROM_AONRTCEventClear 
*          0    0000059c    00000004     
                  0000059c    00000004     SeniorProj_pem3.oem3 (.const:ti_sysbios_rom_ROM_AONRTCEventClear)

.const:ti_sysbios_rom_ROM_ti_sysbios_family_arm_cc26xx_Timer_getCount64__E 
*          0    000005a0    00000004     
                  000005a0    00000004     SeniorProj_pem3.oem3 (.const:ti_sysbios_rom_ROM_ti_sysbios_family_arm_cc26xx_Timer_getCount64__E)

.const:ti_sysbios_rom_ROM_ti_sysbios_family_arm_cc26xx_Timer_getCurrentTick__E 
*          0    000005a4    00000004     
                  000005a4    00000004     SeniorProj_pem3.oem3 (.const:ti_sysbios_rom_ROM_ti_sysbios_family_arm_cc26xx_Timer_getCurrentTick__E)

.const:ti_sysbios_rom_ROM_ti_sysbios_family_arm_cc26xx_Timer_getMaxTicks__E 
*          0    000005a8    00000004     
                  000005a8    00000004     SeniorProj_pem3.oem3 (.const:ti_sysbios_rom_ROM_ti_sysbios_family_arm_cc26xx_Timer_getMaxTicks__E)

.const:ti_sysbios_rom_ROM_ti_sysbios_family_arm_cc26xx_Timer_initDevice__I 
*          0    000005ac    00000004     
                  000005ac    00000004     SeniorProj_pem3.oem3 (.const:ti_sysbios_rom_ROM_ti_sysbios_family_arm_cc26xx_Timer_initDevice__I)

.const:ti_sysbios_rom_ROM_ti_sysbios_family_arm_cc26xx_Timer_setNextTick__E 
*          0    000005b0    00000004     
                  000005b0    00000004     SeniorProj_pem3.oem3 (.const:ti_sysbios_rom_ROM_ti_sysbios_family_arm_cc26xx_Timer_setNextTick__E)

.const:ti_sysbios_rom_ROM_ti_sysbios_family_arm_cc26xx_Timer_setThreshold__I 
*          0    000005b4    00000004     
                  000005b4    00000004     SeniorProj_pem3.oem3 (.const:ti_sysbios_rom_ROM_ti_sysbios_family_arm_cc26xx_Timer_setThreshold__I)

.const:ti_sysbios_rom_ROM_ti_sysbios_family_arm_cc26xx_Timer_start__E 
*          0    000005b8    00000004     
                  000005b8    00000004     SeniorProj_pem3.oem3 (.const:ti_sysbios_rom_ROM_ti_sysbios_family_arm_cc26xx_Timer_start__E)

.const:ti_sysbios_rom_ROM_ti_sysbios_family_arm_cc26xx_TimestampProvider_get32__E 
*          0    000005bc    00000004     
                  000005bc    00000004     SeniorProj_pem3.oem3 (.const:ti_sysbios_rom_ROM_ti_sysbios_family_arm_cc26xx_TimestampProvider_get32__E)

.const:ti_sysbios_rom_ROM_xdc_runtime_Startup_getState__I 
*          0    000005c0    00000004     
                  000005c0    00000004     SeniorProj_pem3.oem3 (.const:ti_sysbios_rom_ROM_xdc_runtime_Startup_getState__I)

.const:ti_sysbios_rom_ROM_xdc_runtime_System_SupportProxy_abort__E 
*          0    000005c4    00000004     
                  000005c4    00000004     SeniorProj_pem3.oem3 (.const:ti_sysbios_rom_ROM_xdc_runtime_System_SupportProxy_abort__E)

.const:ti_sysbios_rom_ROM_xdc_runtime_System_SupportProxy_exit__E 
*          0    000005c8    00000004     
                  000005c8    00000004     SeniorProj_pem3.oem3 (.const:ti_sysbios_rom_ROM_xdc_runtime_System_SupportProxy_exit__E)

.const:ti_sysbios_gates_GateMutex_Instance_State_sem__O 
*          0    000005cc    00000004     
                  000005cc    00000004     SeniorProj_pem3.oem3 (.const:ti_sysbios_gates_GateMutex_Instance_State_sem__O)

.const:ti_sysbios_knl_Clock_Module_State_clockQ__O 
*          0    000005d0    00000004     
                  000005d0    00000004     SeniorProj_pem3.oem3 (.const:ti_sysbios_knl_Clock_Module_State_clockQ__O)

.const:ti_sysbios_knl_Mailbox_Instance_State_dataQue__O 
*          0    000005d4    00000004     
                  000005d4    00000004     SeniorProj_pem3.oem3 (.const:ti_sysbios_knl_Mailbox_Instance_State_dataQue__O)

.const:ti_sysbios_knl_Mailbox_Instance_State_dataSem__O 
*          0    000005d8    00000004     
                  000005d8    00000004     SeniorProj_pem3.oem3 (.const:ti_sysbios_knl_Mailbox_Instance_State_dataSem__O)

.const:ti_sysbios_knl_Mailbox_Instance_State_freeQue__O 
*          0    000005dc    00000004     
                  000005dc    00000004     SeniorProj_pem3.oem3 (.const:ti_sysbios_knl_Mailbox_Instance_State_freeQue__O)

.const:ti_sysbios_knl_Mailbox_Instance_State_freeSem__O 
*          0    000005e0    00000004     
                  000005e0    00000004     SeniorProj_pem3.oem3 (.const:ti_sysbios_knl_Mailbox_Instance_State_freeSem__O)

.const:ti_sysbios_knl_Semaphore_Instance_State_pendQ__O 
*          0    000005e4    00000004     
                  000005e4    00000004     SeniorProj_pem3.oem3 (.const:ti_sysbios_knl_Semaphore_Instance_State_pendQ__O)

.const:ti_sysbios_knl_Task_Module_State_inactiveQ__O 
*          0    000005e8    00000004     
                  000005e8    00000004     SeniorProj_pem3.oem3 (.const:ti_sysbios_knl_Task_Module_State_inactiveQ__O)

.vecs      0    20000000    000000c8     NOLOAD SECTION
                  20000000    000000c8     SeniorProj_pem3.oem3 (.vecs)

.data:ti_sysbios_knl_Task_Module__state__V 
*          0    20000100    00000044     UNINITIALIZED
                  20000100    00000044     SeniorProj_pem3.oem3 (.data:ti_sysbios_knl_Task_Module__state__V)

.data:ti_sysbios_family_arm_m3_Hwi_Module__state__V 
*          0    20000144    00000034     UNINITIALIZED
                  20000144    00000034     SeniorProj_pem3.oem3 (.data:ti_sysbios_family_arm_m3_Hwi_Module__state__V)

.data:ti_sysbios_knl_Clock_Module__state__V 
*          0    20000178    0000002c     UNINITIALIZED
                  20000178    0000002c     SeniorProj_pem3.oem3 (.data:ti_sysbios_knl_Clock_Module__state__V)

.data:ti_sysbios_BIOS_Module__state__V 
*          0    200001a4    00000024     UNINITIALIZED
                  200001a4    00000024     SeniorProj_pem3.oem3 (.data:ti_sysbios_BIOS_Module__state__V)

.data:ti_sysbios_knl_Swi_Module__state__V 
*          0    200001c8    0000001c     UNINITIALIZED
                  200001c8    0000001c     SeniorProj_pem3.oem3 (.data:ti_sysbios_knl_Swi_Module__state__V)

.data:ti_sysbios_family_arm_cc26xx_Timer_Module__state__V 
*          0    200001e4    00000008     UNINITIALIZED
                  200001e4    00000008     SeniorProj_pem3.oem3 (.data:ti_sysbios_family_arm_cc26xx_Timer_Module__state__V)

.data:ti_sysbios_family_arm_cc26xx_TimestampProvider_Module__state__V 
*          0    200001ec    00000004     UNINITIALIZED
                  200001ec    00000004     SeniorProj_pem3.oem3 (.data:ti_sysbios_family_arm_cc26xx_TimestampProvider_Module__state__V)

.data:xdc_runtime_Startup_Module__state__V 
*          0    200001f0    00000008     UNINITIALIZED
                  200001f0    00000008     SeniorProj_pem3.oem3 (.data:xdc_runtime_Startup_Module__state__V)

.data:xdc_runtime_System_Module__state__V 
*          0    200001f8    00000008     UNINITIALIZED
                  200001f8    00000008     SeniorProj_pem3.oem3 (.data:xdc_runtime_System_Module__state__V)

.data:xdc_runtime_Memory_Module__state__V 
*          0    20000200    00000004     UNINITIALIZED
                  20000200    00000004     SeniorProj_pem3.oem3 (.data:xdc_runtime_Memory_Module__state__V)

.TI.bound:dmaSpi0RxControlTableEntry 
*          0    20000430    00000010     UNINITIALIZED
                  20000430    00000010     drivers_cc26xxware.aem3 : SPICC26XXDMA.oem3 (.TI.bound:dmaSpi0RxControlTableEntry)

.TI.bound:dmaSpi0TxControlTableEntry 
*          0    20000440    00000010     UNINITIALIZED
                  20000440    00000010     drivers_cc26xxware.aem3 : SPICC26XXDMA.oem3 (.TI.bound:dmaSpi0TxControlTableEntry)

.TI.bound:dmaSpi1RxControlTableEntry 
*          0    20000500    00000010     UNINITIALIZED
                  20000500    00000010     drivers_cc26xxware.aem3 : SPICC26XXDMA.oem3 (.TI.bound:dmaSpi1RxControlTableEntry)

.TI.bound:dmaSpi1TxControlTableEntry 
*          0    20000510    00000010     UNINITIALIZED
                  20000510    00000010     drivers_cc26xxware.aem3 : SPICC26XXDMA.oem3 (.TI.bound:dmaSpi1TxControlTableEntry)

.bss       0    20000520    0000238a     UNINITIALIZED
                  20000520    00000480     CC2650_LAUNCHXL.obj (.bss:sharpDisplayBuf)
                  200009a0    00000400     CoordinatorRFTask.obj (.bss:coordinatorTaskStack)
                  20000da0    00000400     CoordinatorTask.obj (.bss:coordinatorTaskStack)
                  200011a0    00000400     (.common:ti_sysbios_heaps_HeapMem_Instance_State_0_buf__A)
                  200015a0    00000300     (.common:task0Stack)
                  200018a0    00000200     SeniorProj_pem3.oem3 (.bss:taskStackSection)
                  20001aa0    000001b8     (.common:spiCC26XXDMAObjects)
                  20001c58    0000012c     (.common:uartCC26XXObjects)
                  20001d84    00000004     CoordinatorTask.obj (.bss)
                  20001d88    00000100     rf_singleMode_cc26xxware.aem3 : RFCC26XX_singleMode.oem3 (.bss:aCmdPool)
                  20001e88    000000c8     (.common:ti_sysbios_family_arm_m3_Hwi_dispatchTable)
                  20001f50    000000c0     EasyLink.obj (.bss:rfObject)
                  20002010    00000098     EasyLink.obj (.bss:rxBuffer)
                  200020a8    00000098     EasyLink.obj (.bss:rxPacket$1)
                  20002140    00000090     CoordinatorRFTask.obj (.bss:txPacket)
                  200021d0    0000008c     EasyLink.obj (.bss:txBuffer)
                  2000225c    00000080     CC2650_LAUNCHXL.obj (.bss:uartStringBuf)
                  200022dc    0000007c     drivers_cc26xxware.aem3 : PINCC26XX.oem3 (.bss:PIN_HandleTable)
                  20002358    0000006c     (.common:displaySharpObject)
                  200023c4    00000050     (.common:coordinatorRFTask)
                  20002414    00000050     (.common:coordinatorTask)
                  20002464    00000050     (.common:task0Struct)
                  200024b4    0000003c     CoordinatorTask.obj (.bss:coordinatorTaskParams)
                  200024f0    00000034     drivers_cc26xxware.aem3 : PINCC26XX.oem3 (.bss:PinSwi)
                  20002524    00000034     rf_singleMode_cc26xxware.aem3 : RFCC26XX_singleMode.oem3 (.bss:swiFsm)
                  20002558    00000034                                   : RFCC26XX_singleMode.oem3 (.bss:swiHw)
                  2000258c    00000030     EasyLink.obj (.bss:EasyLink_cmdPropRxAdv)
                  200025bc    0000002c     (.common:knownSensorNodes)
                  200025e8    00000024     rf_singleMode_cc26xxware.aem3 : RFCC26XX_singleMode.oem3 (.bss:clkPowerUp)
                  2000260c    00000020     EasyLink.obj (.bss:EasyLink_cmdPropRadioSetup)
                  2000262c    00000020     (.common:PinGpioConfigTable)
                  2000264c    00000020     (.common:displayUartObject)
                  2000266c    00000020     (.common:uartCC26XXRingBuffer)
                  2000268c    00000020     (.common:udmaObjects)
                  200026ac    0000001c     (.common:PinHwi)
                  200026c8    0000001c     (.common:PinSem)
                  200026e4    0000001c     (.common:hwiCpe0)
                  20002700    0000001c     (.common:hwiHw)
                  2000271c    00000018     EasyLink.obj (.bss:EasyLink_cmdFs)
                  20002734    00000018     EasyLink.obj (.bss:EasyLink_cmdPropTx)
                  2000274c    00000018     (.common:cmdDirImm)
                  20002764    00000014     CoordinatorRFTask.obj (.bss:latestRxPacket)
                  20002778    00000014     driverlib.lib : osc.obj (.bss:oscHfGlobals)
                  2000278c    00000014     EasyLink.obj (.bss:rfParams)
                  200027a0    00000014     (.common:cmdQ)
                  200027b4    00000014     (.common:coordinatorEvent)
                  200027c8    00000014     (.common:opRatSync)
                  200027dc    00000014     (.common:radioOperationEvent)
                  200027f0    00000014     (.common:spiTrans)
                  20002804    00000010     CoordinatorRFTask.obj (.bss)
                  20002814    00000010     EasyLink.obj (.bss)
                  20002824    00000010     EasyLink.obj (.bss:EasyLink_RF_prop)
                  20002834    00000010     (.common:test)
                  20002844    0000000c     CoordinatorRFTask.obj (.bss:ledPinState)
                  20002850    0000000c     EasyLink.obj (.bss:rxStatistics)
                  2000285c    00000008     EasyLink.obj (.bss:dataQueue)
                  20002864    00000008     driverlib.lib : sys_ctrl.obj (.bss:powerQualGlobals)
                  2000286c    00000006     CoordinatorTask.obj (.bss:latestActiveAdcSensorNode)
                  20002872    00000002     CoordinatorRFTask.obj (.bss:ackPacket)
                  20002874    00000004     (.common:PIN_NumPins)
                  20002878    00000004     (.common:activeTimeInUs)
                  2000287c    00000004     (.common:dispatchInUs)
                  20002880    00000004     (.common:nRtc1)
                  20002884    00000004     (.common:nRtc3)
                  20002888    00000004     (.common:pCurrClient)
                  2000288c    00000004     (.common:pFsmState)
                  20002890    00000004     (.common:pPinGpio)
                  20002894    00000004     (.common:pinHandle)
                  20002898    00000004     (.common:spiHandle)
                  2000289c    00000001     (.common:bInitAvailRatCh)
                  2000289d    00000001     (.common:bPowerDownActive)
                  2000289e    00000001     (.common:bPowerUpActive)
                  2000289f    00000001     (.common:bRadioActive)
                  200028a0    00000001     (.common:bRestart)
                  200028a1    00000001     (.common:bStart)
                  200028a2    00000001     (.common:bYieldPwrDnCalled)
                  200028a3    00000001     (.common:bYieldPwrDnCancel)
                  200028a4    00000001     (.common:csPinId)
                  200028a5    00000001     (.common:driverlib_release_0_47020)
                  200028a6    00000001     (.common:nActiveClients)
                  200028a7    00000001     (.common:nClients)
                  200028a8    00000001     (.common:uartRxPowerConstraint)
                  200028a9    00000001     (.common:uartTxPowerConstraint)

.data      0    200028b0    00000598     UNINITIALIZED
                  200028b0    00000110     drivers_cc26xxware.aem3 : PowerCC26XX.oem3 (.data:PowerCC26XX_module)
                  200029c0    00000068     smartrf_settings.obj (.data:pOverrides)
                  20002a28    00000068     smartrf_settings_predefined.obj (.data:pOverrides_fsk)
                  20002a90    0000004c     SeniorProj_pem3.oem3 (.data:ti_sysbios_knl_Task_Object__table__V)
                  20002adc    00000004     CoordinatorTask.obj (.data)
                  20002ae0    00000048     SeniorProj_pem3.oem3 (.data:ti_sysbios_family_arm_cc26xx_Timer_Object__table__V)
                  20002b28    0000003c     smartrf_settings_predefined.obj (.data)
                  20002b64    00000038     SeniorProj_pem3.oem3 (.data:ti_sysbios_gates_GateMutex_Object__table__V)
                  20002b9c    00000030     smartrf_settings_predefined.obj (.data:RF_cmdPropRxAdv_preDef)
                  20002bcc    00000030     SeniorProj_pem3.oem3 (.data:ti_sysbios_knl_Swi_Module_State_0_readyQ__A)
                  20002bfc    00000030     SeniorProj_pem3.oem3 (.data:ti_sysbios_knl_Swi_Object__table__V)
                  20002c2c    00000020     smartrf_settings.obj (.data:RF_cmdPropRadioDivSetup)
                  20002c4c    00000020     smartrf_settings_predefined.obj (.data:RF_cmdPropRadioSetup_2_4G_fsk)
                  20002c6c    00000020     SeniorProj_pem3.oem3 (.data:ti_sysbios_knl_Clock_Object__table__V)
                  20002c8c    00000020     SeniorProj_pem3.oem3 (.data:ti_sysbios_knl_Task_Module_State_0_readyQ__A)
                  20002cac    00000018     smartrf_settings.obj (.data:RF_cmdFs)
                  20002cc4    00000018     smartrf_settings_predefined.obj (.data:RF_cmdFs_preDef)
                  20002cdc    00000018     smartrf_settings.obj (.data:RF_cmdPropTx)
                  20002cf4    00000018     smartrf_settings_predefined.obj (.data:RF_cmdPropTx_preDef)
                  20002d0c    00000018     EasyLink.obj (.data:addrFilterTable)
                  20002d24    00000018     smartrf_settings.obj (.data:shape)
                  20002d3c    00000018     smartrf_settings_predefined.obj (.data:shape_preDef)
                  20002d54    00000018     SeniorProj_pem3.oem3 (.data:ti_sysbios_family_arm_m3_Hwi_Object__table__V)
                  20002d6c    00000018     SeniorProj_pem3.oem3 (.data:ti_sysbios_heaps_HeapMem_Object__table__V)
                  20002d84    00000010     smartrf_settings.obj (.data:RF_prop)
                  20002d94    00000010     smartrf_settings_predefined.obj (.data:RF_prop_2_4G_fsk)
                  20002da4    0000000e     EasyLink.obj (.data)
                  20002db2    00000002     lcd.aem3 : SharpGrLib.oem3 (.data)
                  20002db4    00000008     rtsv7M3_T_le_eabi.lib : _lock.obj (.data:$O1$$)
                  20002dbc    00000008     CoordinatorRFTask.obj (.data:ledPinTable)
                  20002dc4    00000008     SeniorProj_pem3.oem3 (.data:ti_sysbios_family_arm_m3_Hwi_Module__root__V)
                  20002dcc    00000008     SeniorProj_pem3.oem3 (.data:ti_sysbios_gates_GateHwi_Module__root__V)
                  20002dd4    00000008     SeniorProj_pem3.oem3 (.data:ti_sysbios_gates_GateMutex_Module__root__V)
                  20002ddc    00000008     SeniorProj_pem3.oem3 (.data:ti_sysbios_hal_Hwi_Module__root__V)
                  20002de4    00000008     SeniorProj_pem3.oem3 (.data:ti_sysbios_heaps_HeapMem_Module__root__V)
                  20002dec    00000008     SeniorProj_pem3.oem3 (.data:ti_sysbios_knl_Clock_Module__root__V)
                  20002df4    00000008     SeniorProj_pem3.oem3 (.data:ti_sysbios_knl_Event_Module__root__V)
                  20002dfc    00000008     SeniorProj_pem3.oem3 (.data:ti_sysbios_knl_Mailbox_Module__root__V)
                  20002e04    00000008     SeniorProj_pem3.oem3 (.data:ti_sysbios_knl_Queue_Module__root__V)
                  20002e0c    00000008     SeniorProj_pem3.oem3 (.data:ti_sysbios_knl_Semaphore_Module__root__V)
                  20002e14    00000008     SeniorProj_pem3.oem3 (.data:ti_sysbios_knl_Swi_Module__root__V)
                  20002e1c    00000008     SeniorProj_pem3.oem3 (.data:ti_sysbios_knl_Task_Module__root__V)
                  20002e24    00000008     SeniorProj_pem3.oem3 (.data:xdc_runtime_Registry_Module__state__V)
                  20002e2c    00000004     drivers_cc26xxware.aem3 : SPI.oem3 (.data)
                  20002e30    00000004                             : UART.oem3 (.data)
                  20002e34    00000004     rtsv7M3_T_le_eabi.lib : stkdepth_vars.obj (.data)
                  20002e38    00000004     SeniorProj_pem3.oem3 (.data:ti_sysbios_family_arm_m3_Hwi_Module_State_0_excContext__A)
                  20002e3c    00000004     SeniorProj_pem3.oem3 (.data:ti_sysbios_family_arm_m3_Hwi_Module_State_0_excStack__A)
                  20002e40    00000004     SeniorProj_pem3.oem3 (.data:ti_sysbios_knl_Task_Module_State_0_idleTask__A)
                  20002e44    00000002     rf_singleMode_cc26xxware.aem3 : RFCC26XX_singleMode.oem3 (.data)
                  20002e46    00000002     SeniorProj_pem3.oem3 (.data:ti_sysbios_family_arm_m3_Hwi_Module_State_0_excActive__A)

.stack     0    20004d00    00000300     UNINITIALIZED
                  20004d00    00000300     --HOLE--

.bootVecs 
*          0    00000000    00000008     DSECT
                  00000000    00000008     boot.aem3 : boot.oem3 (.bootVecs)

xdc.meta   0    00000000    000000f3     COPY SECTION
                  00000000    000000f3     SeniorProj_pem3.oem3 (xdc.meta)

xdc.noload 
*          0    00000000    00000000     COPY SECTION

MODULE SUMMARY

       Module                            code    ro data   rw data
       ------                            ----    -------   -------
    .\
       GPS.obj                           1894    5         848    
       CC2650_LAUNCHXL.obj               0       316       2224   
       CoordinatorRFTask.obj             828     0         1342   
       CoordinatorTask.obj               712     0         1242   
       ccfg.obj                          0       88        0      
       SeniorProj.obj                    72      0         0      
    +--+---------------------------------+-------+---------+---------+
       Total:                            3506    409       5656   
                                                                  
    .\easylink\
       EasyLink.obj                      2118    0         874    
    +--+---------------------------------+-------+---------+---------+
       Total:                            2118    0         874    
                                                                  
    .\smartrf_settings\
       smartrf_settings_predefined.obj   726     3844      332    
       smartrf_settings.obj              726     3844      224    
    +--+---------------------------------+-------+---------+---------+
       Total:                            1452    7688      556    
                                                                  
    C:\Users\eolson\WorkSpace V2\SeniorProjCoordinator\Debug\configPkg\package\cfg\
       SeniorProj_pem3.oem3              774     1539      2726   
    +--+---------------------------------+-------+---------+---------+
       Total:                            774     1539      2726   
                                                                  
    C:/ti/tirtos_cc13xx_cc26xx_2_21_00_06/products/cc26xxware_2_24_03_17272/driverlib/bin/ccs/driverlib.lib
       setup_rom.obj                     1300    0         0      
       sys_ctrl.obj                      712     0         8      
       setup.obj                         356     0         0      
       osc.obj                           332     0         20     
       chipinfo.obj                      304     0         0      
       ddi.obj                           180     0         0      
       rfc.obj                           168     0         0      
       aon_rtc.obj                       44      0         0      
       adi.obj                           40      0         0      
       aon_batmon.obj                    40      0         0      
       cpu.obj                           24      0         0      
       vims.obj                          14      0         0      
       driverlib_release.obj             0       0         1      
    +--+---------------------------------+-------+---------+---------+
       Total:                            3514    0         29     
                                                                  
    C:/ti/tirtos_cc13xx_cc26xx_2_21_00_06/products/tidrivers_cc13xx_cc26xx_2_21_00_04/packages/ti/drivers/lib/drivers_cc26xxware.aem3
       UARTCC26XX.oem3                   2664    104       2      
       PowerCC26XX.oem3                  2064    76        272    
       SPICC26XXDMA.oem3                 2120    84        64     
       PINCC26XX.oem3                    1618    0         272    
       PowerCC26XX_calibrateRCOSC.oem3   1400    0         0      
       UART.oem3                         158     36        4      
       UDMACC26XX.oem3                   184     0         0      
       RingBuf.oem3                      152     0         0      
       SPI.oem3                          88      32        4      
       List.oem3                         82      0         0      
    +--+---------------------------------+-------+---------+---------+
       Total:                            10530   332       618    
                                                                  
    C:/ti/tirtos_cc13xx_cc26xx_2_21_00_06/products/tidrivers_cc13xx_cc26xx_2_21_00_04/packages/ti/drivers/lib/power_cc26xx_tirtos.aem3
       PowerCC26XX_tirtos.oem3           212     0         0      
    +--+---------------------------------+-------+---------+---------+
       Total:                            212     0         0      
                                                                  
    C:/ti/tirtos_cc13xx_cc26xx_2_21_00_06/products/tidrivers_cc13xx_cc26xx_2_21_00_04/packages/ti/drivers/ports/lib/tirtosport.aem3
       HwiP_tirtos.oem3                  4       0         0      
    +--+---------------------------------+-------+---------+---------+
       Total:                            4       0         0      
                                                                  
    C:/ti/tirtos_cc13xx_cc26xx_2_21_00_06/products/tidrivers_cc13xx_cc26xx_2_21_00_04/packages/ti/drivers/rf/lib/rf_singleMode_cc26xxware.aem3
       RFCC26XX_singleMode.oem3          4610    20        552    
    +--+---------------------------------+-------+---------+---------+
       Total:                            4610    20        552    
                                                                  
    C:/ti/tirtos_cc13xx_cc26xx_2_21_00_06/products/tidrivers_cc13xx_cc26xx_2_21_00_04/packages/ti/mw/display/lib/display.aem3
       DisplaySharp.oem3                 980     36        0      
       DisplayUart.oem3                  204     28        0      
       Display.oem3                      116     1         0      
    +--+---------------------------------+-------+---------+---------+
       Total:                            1300    65        0      
                                                                  
    C:/ti/tirtos_cc13xx_cc26xx_2_21_00_06/products/tidrivers_cc13xx_cc26xx_2_21_00_04/packages/ti/mw/grlib/lib/grlib.aem3
       fontfixed6x8.oem3                 0       960       0      
       string.oem3                       770     0         0      
       rectangle.oem3                    136     0         0      
       line.oem3                         78      0         0      
       context.oem3                      34      0         0      
    +--+---------------------------------+-------+---------+---------+
       Total:                            1018    960       0      
                                                                  
    C:/ti/tirtos_cc13xx_cc26xx_2_21_00_06/products/tidrivers_cc13xx_cc26xx_2_21_00_04/packages/ti/mw/lcd/lib/lcd.aem3
       SharpGrLib.oem3                   1196    48        31     
    +--+---------------------------------+-------+---------+---------+
       Total:                            1196    48        31     
                                                                  
    C:\Users\eolson\WorkSpace V2\SeniorProjCoordinator\src\sysbios\rom_sysbios.aem3
       rom_sysbios.obj                   2735    0         0      
       rom_sysbios_config.obj            26      0         0      
    +--+---------------------------------+-------+---------+---------+
       Total:                            2761    0         0      
                                                                  
    C:\ti\ccsv7\tools\compiler\ti-cgt-arm_16.9.3.LTS\lib\rtsv7M3_T_le_eabi.lib
       ull_div_t2.obj                    500     0         0      
       memcpy_t2.obj                     156     0         0      
       memset_t2.obj                     122     0         0      
       copy_decompress_lzss.obj          104     0         0      
       cpy_tbl.obj                       76      0         0      
       u_divt2.obj                       64      0         0      
       strncmp.obj                       40      0         0      
       _lock.obj                         20      0         8      
       args_main.obj                     24      0         0      
       ll_mul_t2.obj                     24      0         0      
       strlen.obj                        20      0         0      
       copy_decompress_none.obj          14      0         0      
       copy_zero_init.obj                12      0         0      
       stkdepth_vars.obj                 0       0         4      
       i_div0.obj                        2       0         0      
    +--+---------------------------------+-------+---------+---------+
       Total:                            1178    0         12     
                                                                  
    C:\ti\tirtos_cc13xx_cc26xx_2_21_00_06\products\bios_6_46_01_37\packages\ti\targets\arm\rtsarm\lib\auto_init.aem3
       auto_init.oem3                    160     0         0      
    +--+---------------------------------+-------+---------+---------+
       Total:                            160     0         0      
                                                                  
    C:\ti\tirtos_cc13xx_cc26xx_2_21_00_06\products\bios_6_46_01_37\packages\ti\targets\arm\rtsarm\lib\boot.aem3
       boot.oem3                         68      0         0      
    +--+---------------------------------+-------+---------+---------+
       Total:                            68      0         0      
                                                                  
       Stack:                            0       0         768    
       Linker Generated:                 488     899       0      
    +--+---------------------------------+-------+---------+---------+
       Grand Total:                      34889   11960     11822  


LINKER GENERATED COPY TABLES

__TI_cinit_table @ 0000b708 records: 16, size/record: 8, table size: 128
	.data: load addr=0000b400, load size=00000211 bytes, run addr=200028b0, run size=00000598 bytes, compression=lzss
	.data:ti_sysbios_family_arm_m3_Hwi_Module__state__V: load addr=0000b611, load size=00000028 bytes, run addr=20000144, run size=00000034 bytes, compression=lzss
	.data:ti_sysbios_knl_Task_Module__state__V: load addr=0000b639, load size=00000021 bytes, run addr=20000100, run size=00000044 bytes, compression=lzss
	.data:ti_sysbios_BIOS_Module__state__V: load addr=0000b65a, load size=0000001f bytes, run addr=200001a4, run size=00000024 bytes, compression=lzss
	.data:ti_sysbios_knl_Clock_Module__state__V: load addr=0000b679, load size=0000001e bytes, run addr=20000178, run size=0000002c bytes, compression=lzss
	.data:ti_sysbios_knl_Swi_Module__state__V: load addr=0000b697, load size=00000010 bytes, run addr=200001c8, run size=0000001c bytes, compression=lzss
	.data:ti_sysbios_family_arm_cc26xx_Timer_Module__state__V: load addr=0000b6b4, load size=0000000b bytes, run addr=200001e4, run size=00000008 bytes, compression=lzss
	.TI.bound:dmaSpi0RxControlTableEntry: load addr=0000b6c0, load size=00000008 bytes, run addr=20000430, run size=00000010 bytes, compression=zero_init
	.TI.bound:dmaSpi0TxControlTableEntry: load addr=0000b6c8, load size=00000008 bytes, run addr=20000440, run size=00000010 bytes, compression=zero_init
	.TI.bound:dmaSpi1RxControlTableEntry: load addr=0000b6d0, load size=00000008 bytes, run addr=20000500, run size=00000010 bytes, compression=zero_init
	.TI.bound:dmaSpi1TxControlTableEntry: load addr=0000b6d8, load size=00000008 bytes, run addr=20000510, run size=00000010 bytes, compression=zero_init
	.bss: load addr=0000b6e0, load size=00000008 bytes, run addr=20000520, run size=0000238a bytes, compression=zero_init
	.data:xdc_runtime_Memory_Module__state__V: load addr=0000b6e8, load size=00000008 bytes, run addr=20000200, run size=00000004 bytes, compression=lzss
	.data:ti_sysbios_family_arm_cc26xx_TimestampProvider_Module__state__V: load addr=0000b6f0, load size=00000007 bytes, run addr=200001ec, run size=00000004 bytes, compression=lzss
	.data:xdc_runtime_Startup_Module__state__V: load addr=0000b6f7, load size=00000007 bytes, run addr=200001f0, run size=00000008 bytes, compression=lzss
	.data:xdc_runtime_System_Module__state__V: load addr=0000b6fe, load size=00000007 bytes, run addr=200001f8, run size=00000008 bytes, compression=lzss


LINKER GENERATED HANDLER TABLE

__TI_handler_table @ 0000b6a8 records: 3, size/record: 4, table size: 12
	index: 0, handler: __TI_decompress_lzss
	index: 1, handler: __TI_decompress_none
	index: 2, handler: __TI_zero_init


FAR CALL TRAMPOLINES

callee name               trampoline name
   callee addr  tramp addr   call addr  call info
--------------  -----------  ---------  ----------------
xdc_runtime_Core_assignParams__I  $Tramp$TT$L$PI$$xdc_runtime_Core_assignParams__I
   1001c5f1     00008c50     00008b34   SeniorProj_pem3.oem3 (.text:ti_sysbios_knl_Event_Params__init__S)
xdc_runtime_Startup_startMods__I  $Tramp$TT$L$PI$$xdc_runtime_Startup_startMods__I
   1001c30d     00008c58     000089e0   SeniorProj_pem3.oem3 (.text:xdc_runtime_Startup_exec__I)
ti_sysbios_knl_Queue_construct  $Tramp$TT$L$PI$$ti_sysbios_knl_Queue_construct
   1001b8f5     00008c60     000089ba   rom_sysbios.aem3 : rom_sysbios.obj (.text:ti_sysbios_knl_Event_Instance_init__E)
ti_sysbios_knl_Clock_logTick__E  $Tramp$TT$L$PI$$ti_sysbios_knl_Clock_logTick__E
   1001be67     00008c68     0000899e   SeniorProj_pem3.oem3 (.text:ti_sysbios_knl_Clock_doTick__I)
ti_sysbios_knl_Task_Params__init__S  $Tramp$TT$L$PI$$ti_sysbios_knl_Task_Params__init__S
   1001c1d9     00008c70     000088c8   CoordinatorRFTask.obj (.text:ti_sysbios_knl_Task_Params_init)
                             000088de   CoordinatorTask.obj (.text:ti_sysbios_knl_Task_Params_init)
                             000088f4   GPS.obj (.text:ti_sysbios_knl_Task_Params_init)
ti_sysbios_BIOS_RtsGateProxy_leave__E  $Tramp$TT$L$PI$$ti_sysbios_BIOS_RtsGateProxy_leave__E
   1001c24d     00008c78     00008826   SeniorProj_pem3.oem3 (.text:ti_sysbios_BIOS_rtsUnlock__I)
ti_sysbios_BIOS_RtsGateProxy_enter__E  $Tramp$TT$L$PI$$ti_sysbios_BIOS_RtsGateProxy_enter__E
   1001c249     00008c80     0000841a   SeniorProj_pem3.oem3 (.text:ti_sysbios_BIOS_rtsLock__I)
xdc_runtime_Core_constructObject__I  $Tramp$TT$L$PI$$xdc_runtime_Core_constructObject__I
   1001c639     00008c88     000080ac   SeniorProj_pem3.oem3 (.text:ti_sysbios_knl_Event_construct)
xdc_runtime_Memory_alloc__E  $Tramp$TT$L$PI$$xdc_runtime_Memory_alloc__E
   1001c489     00008c90     00007f78   SeniorProj_pem3.oem3 (.text:malloc)
ti_sysbios_knl_Task_startup__E  $Tramp$TT$L$PI$$ti_sysbios_knl_Task_startup__E
   1001c309     00008c98     00007ec4   SeniorProj_pem3.oem3 (.text:ti_sysbios_BIOS_startFunc__I)
ti_sysbios_knl_Swi_startup__E  $Tramp$TT$L$PI$$ti_sysbios_knl_Swi_startup__E
   1001c23d     00008ca0     00007ec0   SeniorProj_pem3.oem3 (.text:ti_sysbios_BIOS_startFunc__I)
ti_sysbios_hal_Hwi_startup__E  $Tramp$TT$L$PI$$ti_sysbios_hal_Hwi_startup__E
   1001c28d     00008ca8     00007ebc   SeniorProj_pem3.oem3 (.text:ti_sysbios_BIOS_startFunc__I)
ti_sysbios_family_arm_cc26xx_Timer_startup__E  $Tramp$TT$L$PI$$ti_sysbios_family_arm_cc26xx_Timer_startup__E
   1001b795     00008cb0     00007eb8   SeniorProj_pem3.oem3 (.text:ti_sysbios_BIOS_startFunc__I)
xdc_runtime_System_atexit__E  $Tramp$TT$L$PI$$xdc_runtime_System_atexit__E
   1001c681     00008cb8     00007eb0   SeniorProj_pem3.oem3 (.text:ti_sysbios_BIOS_startFunc__I)
ti_sysbios_BIOS_setThreadType__E  $Tramp$TT$L$PI$$ti_sysbios_BIOS_setThreadType__E
   1001c045     00008cc0     00007e7c   SeniorProj_pem3.oem3 (.text:ti_sysbios_BIOS_atExitFunc__I)
                             0000886a   SeniorProj_pem3.oem3 (.text:ti_sysbios_BIOS_exitFunc__I)
xdc_runtime_System_exit__E  $Tramp$TT$L$PI$$xdc_runtime_System_exit__E
   1001c7d1     00008cc8     000076b4   boot.aem3 : boot.oem3 (.text)
                             00008870   SeniorProj_pem3.oem3 (.text:ti_sysbios_BIOS_exitFunc__I)
ti_sysbios_BIOS_start__E  $Tramp$TT$L$PI$$ti_sysbios_BIOS_start__E
   1001c055     00008cd0     000075d4   SeniorProj.obj (.text:main)
ti_sysbios_knl_Task_unblockI__E  $Tramp$TT$L$PI$$ti_sysbios_knl_Task_unblockI__E
   1001b9a5     00008cd8     000062ce   rom_sysbios.aem3 : rom_sysbios.obj (.text:ti_sysbios_knl_Event_post__E)
                             000080e2                    : rom_sysbios.obj (.text:ti_sysbios_knl_Event_pendTimeout__I)
ti_sysbios_knl_Queue_remove__E  $Tramp$TT$L$PI$$ti_sysbios_knl_Queue_remove__E
   1001c121     00008ce0     000062ba   rom_sysbios.aem3 : rom_sysbios.obj (.text:ti_sysbios_knl_Event_post__E)
                             000080d6                    : rom_sysbios.obj (.text:ti_sysbios_knl_Event_pendTimeout__I)
ti_sysbios_knl_Queue_head__E  $Tramp$TT$L$PI$$ti_sysbios_knl_Queue_head__E
   1001c2d5     00008ce8     000062a2   rom_sysbios.aem3 : rom_sysbios.obj (.text:ti_sysbios_knl_Event_post__E)
ti_sysbios_knl_Queue_empty__E  $Tramp$TT$L$PI$$ti_sysbios_knl_Queue_empty__E
   1001c113     00008cf0     00006294   rom_sysbios.aem3 : rom_sysbios.obj (.text:ti_sysbios_knl_Event_post__E)
ti_sysbios_knl_Clock_scheduleNextTick__E  $Tramp$TT$L$PI$$ti_sysbios_knl_Clock_scheduleNextTick__E
   1001bebd     00008cf8     000055aa   rom_sysbios.aem3 : rom_sysbios.obj (.text:ti_sysbios_knl_Clock_workFuncDynamic__E)
ti_sysbios_knl_Clock_walkQueueDynamic__E  $Tramp$TT$L$PI$$ti_sysbios_knl_Clock_walkQueueDynamic__E
   1001a80d     00008d00     00005572   rom_sysbios.aem3 : rom_sysbios.obj (.text:ti_sysbios_knl_Clock_workFuncDynamic__E)
                             0000558e                    : rom_sysbios.obj (.text:ti_sysbios_knl_Clock_workFuncDynamic__E)
ti_sysbios_knl_Clock_TimerProxy_getCurrentTick__E  $Tramp$TT$L$PI$$ti_sysbios_knl_Clock_TimerProxy_getCurrentTick__E
   1001c095     00008d08     00005540   rom_sysbios.aem3 : rom_sysbios.obj (.text:ti_sysbios_knl_Clock_workFuncDynamic__E)
                             0000807a                    : rom_sysbios.obj (.text:ti_sysbios_knl_Clock_getTicksUntilInterrupt__E)
ti_sysbios_knl_Task_construct  $Tramp$TT$L$PI$$ti_sysbios_knl_Task_construct
   1001b125     00008d10     00004e1e   CoordinatorRFTask.obj (.text:CoordinatorRFTask_init)
                             00005b1e   CoordinatorTask.obj (.text:CoordinatorTask_init)
                             00007bd2   GPS.obj (.text:GPS_init)
ti_sysbios_family_arm_m3_Hwi_enableInterrupt__E  $Tramp$TT$L$PI$$ti_sysbios_family_arm_m3_Hwi_enableInterrupt__E
   1001b2dd     00008d18     00004d88   rf_singleMode_cc26xxware.aem3 : RFCC26XX_singleMode.oem3 (.text:fsmPowerUpState)
ti_sysbios_BIOS_getCpuFreq__E  $Tramp$TT$L$PI$$ti_sysbios_BIOS_getCpuFreq__E
   1001bff9     00008d20     00004c84   drivers_cc26xxware.aem3 : UARTCC26XX.oem3 (.text:UARTCC26XX_initHw)
                             000068be                           : SPICC26XXDMA.oem3 (.text:SPICC26XXDMA_initHw)
ti_sysbios_knl_Clock_removeI__E  $Tramp$TT$L$PI$$ti_sysbios_knl_Clock_removeI__E
   1001c2bd     00008d28     000042ac   rom_sysbios.aem3 : rom_sysbios.obj (.text:ti_sysbios_knl_Event_pend__E)
                             000042cc                    : rom_sysbios.obj (.text:ti_sysbios_knl_Event_pend__E)
ti_sysbios_knl_Clock_startI__E  $Tramp$TT$L$PI$$ti_sysbios_knl_Clock_startI__E
   1001a719     00008d30     00004292   rom_sysbios.aem3 : rom_sysbios.obj (.text:ti_sysbios_knl_Event_pend__E)
ti_sysbios_knl_Task_blockI__E  $Tramp$TT$L$PI$$ti_sysbios_knl_Task_blockI__E
   1001b615     00008d38     00004282   rom_sysbios.aem3 : rom_sysbios.obj (.text:ti_sysbios_knl_Event_pend__E)
ti_sysbios_knl_Queue_enqueue__E  $Tramp$TT$L$PI$$ti_sysbios_knl_Queue_enqueue__E
   1001c1b5     00008d40     0000427c   rom_sysbios.aem3 : rom_sysbios.obj (.text:ti_sysbios_knl_Event_pend__E)
ti_sysbios_knl_Task_self__E  $Tramp$TT$L$PI$$ti_sysbios_knl_Task_self__E
   1001c1e5     00008d48     00004242   rom_sysbios.aem3 : rom_sysbios.obj (.text:ti_sysbios_knl_Event_pend__E)
ti_sysbios_knl_Clock_addI__E  $Tramp$TT$L$PI$$ti_sysbios_knl_Clock_addI__E
   1001ba21     00008d50     00004220   rom_sysbios.aem3 : rom_sysbios.obj (.text:ti_sysbios_knl_Event_pend__E)
ti_sysbios_family_arm_m3_Hwi_destruct  $Tramp$TT$L$PI$$ti_sysbios_family_arm_m3_Hwi_destruct
   1001c261     00008d58     00003ba4   rf_singleMode_cc26xxware.aem3 : RFCC26XX_singleMode.oem3 (.text:RF_close)
                             00003bb0                                 : RFCC26XX_singleMode.oem3 (.text:RF_close)
                             00005f04   drivers_cc26xxware.aem3 : UARTCC26XX.oem3 (.text:UARTCC26XX_close)
                             00006c04                           : SPICC26XXDMA.oem3 (.text:SPICC26XXDMA_close)
                             00007b6a                           : UDMACC26XX.oem3 (.text:UDMACC26XX_close)
ti_sysbios_knl_Swi_destruct  $Tramp$TT$L$PI$$ti_sysbios_knl_Swi_destruct
   1001c2e9     00008d60     00003b9e   rf_singleMode_cc26xxware.aem3 : RFCC26XX_singleMode.oem3 (.text:RF_close)
                             00003baa                                 : RFCC26XX_singleMode.oem3 (.text:RF_close)
                             00005f0c   drivers_cc26xxware.aem3 : UARTCC26XX.oem3 (.text:UARTCC26XX_close)
                             00006c0c                           : SPICC26XXDMA.oem3 (.text:SPICC26XXDMA_close)
ti_sysbios_knl_Clock_destruct  $Tramp$TT$L$PI$$ti_sysbios_knl_Clock_destruct
   1001c2b9     00008d68     00003b98   rf_singleMode_cc26xxware.aem3 : RFCC26XX_singleMode.oem3 (.text:RF_close)
                             00003bb6                                 : RFCC26XX_singleMode.oem3 (.text:RF_close)
                             00003be8                                 : RFCC26XX_singleMode.oem3 (.text:RF_close)
                             00005f2c   drivers_cc26xxware.aem3 : UARTCC26XX.oem3 (.text:UARTCC26XX_close)
ti_sysbios_knl_Semaphore_destruct  $Tramp$TT$L$PI$$ti_sysbios_knl_Semaphore_destruct
   1001c2e1     00008d70     00003b90   rf_singleMode_cc26xxware.aem3 : RFCC26XX_singleMode.oem3 (.text:RF_close)
                             00003be0                                 : RFCC26XX_singleMode.oem3 (.text:RF_close)
                             00005f18   drivers_cc26xxware.aem3 : UARTCC26XX.oem3 (.text:UARTCC26XX_close)
                             00005f24                           : UARTCC26XX.oem3 (.text:UARTCC26XX_close)
                             00006c1e                           : SPICC26XXDMA.oem3 (.text:SPICC26XXDMA_close)
                             00008630   display.aem3 : DisplayUart.oem3 (.text:DisplayUart_close)
ti_sysbios_knl_Swi_post__E  $Tramp$TT$L$PI$$ti_sysbios_knl_Swi_post__E
   1001b321     00008d78     000036b8   drivers_cc26xxware.aem3 : UARTCC26XX.oem3 (.text:UARTCC26XX_read)
                             00003a78                           : UARTCC26XX.oem3 (.text:UARTCC26XX_hwiIntFxn)
                             00005302                           : SPICC26XXDMA.oem3 (.text:SPICC26XXDMA_hwiFxn)
                             00008844   rom_sysbios.aem3 : rom_sysbios.obj (.text:ti_sysbios_knl_Swi_or__E)
                             000089a6   SeniorProj_pem3.oem3 (.text:ti_sysbios_knl_Clock_doTick__I)
xdc_runtime_System_abortSpin__E  $Tramp$TT$L$PI$$xdc_runtime_System_abortSpin__E
   1001c899     00008d80     000026fa   drivers_cc26xxware.aem3 : PowerCC26XX_calibrateRCOSC.oem3 (.text:PowerCC26XX_doCalibrate)
                             0000685a                           : PowerCC26XX_calibrateRCOSC.oem3 (.text:PowerCC26XX_RCOSC_clockFunc)
ti_sysbios_knl_Clock_construct  $Tramp$TT$L$PI$$ti_sysbios_knl_Clock_construct
   1001b579     00008d88     00002452   drivers_cc26xxware.aem3 : UARTCC26XX.oem3 (.text:UARTCC26XX_open)
                             0000340a   rf_singleMode_cc26xxware.aem3 : RFCC26XX_singleMode.oem3 (.text:rf_init)
                             000034da   drivers_cc26xxware.aem3 : PowerCC26XX.oem3 (.text:Power_init)
                             000034e8                           : PowerCC26XX.oem3 (.text:Power_init)
                             000034f6                           : PowerCC26XX.oem3 (.text:Power_init)
                             00004c1c   rf_singleMode_cc26xxware.aem3 : RFCC26XX_singleMode.oem3 (.text:RF_open)
                             00006474   drivers_cc26xxware.aem3 : PowerCC26XX.oem3 (.text:PowerCC26XX_calibrate)
ti_sysbios_knl_Clock_Params__init__S  $Tramp$TT$L$PI$$ti_sysbios_knl_Clock_Params__init__S
   1001c185     00008d90     0000243a   drivers_cc26xxware.aem3 : UARTCC26XX.oem3 (.text:UARTCC26XX_open)
                             000034c2                           : PowerCC26XX.oem3 (.text:Power_init)
                             00004c0c   rf_singleMode_cc26xxware.aem3 : RFCC26XX_singleMode.oem3 (.text:RF_open)
                             0000645c   drivers_cc26xxware.aem3 : PowerCC26XX.oem3 (.text:PowerCC26XX_calibrate)
ti_sysbios_knl_Swi_construct  $Tramp$TT$L$PI$$ti_sysbios_knl_Swi_construct
   1001b085     00008d98     00002290   drivers_cc26xxware.aem3 : PINCC26XX.oem3 (.text:PIN_init)
                             000023f6                           : UARTCC26XX.oem3 (.text:UARTCC26XX_open)
                             00002f4a                           : SPICC26XXDMA.oem3 (.text:SPICC26XXDMA_open)
                             0000339a   rf_singleMode_cc26xxware.aem3 : RFCC26XX_singleMode.oem3 (.text:rf_init)
                             000033da                                 : RFCC26XX_singleMode.oem3 (.text:rf_init)
ti_sysbios_knl_Swi_Params__init__S  $Tramp$TT$L$PI$$ti_sysbios_knl_Swi_Params__init__S
   1001c1cd     00008da0     0000227e   drivers_cc26xxware.aem3 : PINCC26XX.oem3 (.text:PIN_init)
                             000023e0                           : UARTCC26XX.oem3 (.text:UARTCC26XX_open)
                             00002f36                           : SPICC26XXDMA.oem3 (.text:SPICC26XXDMA_open)
                             00003388   rf_singleMode_cc26xxware.aem3 : RFCC26XX_singleMode.oem3 (.text:rf_init)
                             000033ca                                 : RFCC26XX_singleMode.oem3 (.text:rf_init)
ti_sysbios_family_arm_m3_Hwi_construct  $Tramp$TT$L$PI$$ti_sysbios_family_arm_m3_Hwi_construct
   1001af29     00008da8     00002272   drivers_cc26xxware.aem3 : PINCC26XX.oem3 (.text:PIN_init)
                             000023d4                           : UARTCC26XX.oem3 (.text:UARTCC26XX_open)
                             00002f2a                           : SPICC26XXDMA.oem3 (.text:SPICC26XXDMA_open)
                             000033be   rf_singleMode_cc26xxware.aem3 : RFCC26XX_singleMode.oem3 (.text:rf_init)
                             000033fe                                 : RFCC26XX_singleMode.oem3 (.text:rf_init)
                             00006484   drivers_cc26xxware.aem3 : PowerCC26XX.oem3 (.text:PowerCC26XX_calibrate)
                             00006b06                           : UDMACC26XX.oem3 (.text:UDMACC26XX_open)
ti_sysbios_family_arm_m3_Hwi_Params__init__S  $Tramp$TT$L$PI$$ti_sysbios_family_arm_m3_Hwi_Params__init__S
   1001c13d     00008db0     0000225c   drivers_cc26xxware.aem3 : PINCC26XX.oem3 (.text:PIN_init)
                             000023b8                           : UARTCC26XX.oem3 (.text:UARTCC26XX_open)
                             00002f12                           : SPICC26XXDMA.oem3 (.text:SPICC26XXDMA_open)
                             000033a6   rf_singleMode_cc26xxware.aem3 : RFCC26XX_singleMode.oem3 (.text:rf_init)
                             000033e6                                 : RFCC26XX_singleMode.oem3 (.text:rf_init)
                             00006af0   drivers_cc26xxware.aem3 : UDMACC26XX.oem3 (.text:UDMACC26XX_open)
ti_sysbios_knl_Semaphore_construct  $Tramp$TT$L$PI$$ti_sysbios_knl_Semaphore_construct
   1001b709     00008db8     000021fa   drivers_cc26xxware.aem3 : PINCC26XX.oem3 (.text:PIN_init)
                             00002416                           : UARTCC26XX.oem3 (.text:UARTCC26XX_open)
                             0000242a                           : UARTCC26XX.oem3 (.text:UARTCC26XX_open)
                             00002f6a                           : SPICC26XXDMA.oem3 (.text:SPICC26XXDMA_open)
                             00003066   display.aem3 : DisplaySharp.oem3 (.text:DisplaySharp_open)
                             00004c00   rf_singleMode_cc26xxware.aem3 : RFCC26XX_singleMode.oem3 (.text:RF_open)
                             000070b4   display.aem3 : DisplayUart.oem3 (.text:DisplayUart_open)
ti_sysbios_knl_Semaphore_Params__init__S  $Tramp$TT$L$PI$$ti_sysbios_knl_Semaphore_Params__init__S
   1001c1c1     00008dc0     000021e8   drivers_cc26xxware.aem3 : PINCC26XX.oem3 (.text:PIN_init)
                             00002402                           : UARTCC26XX.oem3 (.text:UARTCC26XX_open)
                             00002f5a                           : SPICC26XXDMA.oem3 (.text:SPICC26XXDMA_open)
                             00003054   display.aem3 : DisplaySharp.oem3 (.text:DisplaySharp_open)
                             00004bf0   rf_singleMode_cc26xxware.aem3 : RFCC26XX_singleMode.oem3 (.text:RF_open)
                             000070a6   display.aem3 : DisplayUart.oem3 (.text:DisplayUart_open)
                             000088b2   EasyLink.obj (.text:ti_sysbios_knl_Semaphore_Params_init)
ti_sysbios_knl_Task_restore__E  $Tramp$TT$L$PI$$ti_sysbios_knl_Task_restore__E
   1001ba49     00008dc8     0000194c   drivers_cc26xxware.aem3 : PowerCC26XX.oem3 (.text:Power_sleep)
                             0000429c   rom_sysbios.aem3 : rom_sysbios.obj (.text:ti_sysbios_knl_Event_pend__E)
                             000062d8                    : rom_sysbios.obj (.text:ti_sysbios_knl_Event_post__E)
ti_sysbios_knl_Swi_restore__E  $Tramp$TT$L$PI$$ti_sysbios_knl_Swi_restore__E
   1001b5e1     00008dd0     00001942   drivers_cc26xxware.aem3 : PowerCC26XX.oem3 (.text:Power_sleep)
                             00005d0a   rf_singleMode_cc26xxware.aem3 : RFCC26XX_singleMode.oem3 (.text:RF_pendCmd)
                             00005d30                                 : RFCC26XX_singleMode.oem3 (.text:RF_pendCmd)
                             00005d4e                                 : RFCC26XX_singleMode.oem3 (.text:RF_pendCmd)
ti_sysbios_knl_Swi_disable__E  $Tramp$TT$L$PI$$ti_sysbios_knl_Swi_disable__E
   1001c0d5     00008dd8     0000179e   drivers_cc26xxware.aem3 : PowerCC26XX.oem3 (.text:Power_sleep)
                             00005cf4   rf_singleMode_cc26xxware.aem3 : RFCC26XX_singleMode.oem3 (.text:RF_pendCmd)
                             00007e72   SeniorProj_pem3.oem3 (.text:ti_sysbios_BIOS_atExitFunc__I)
ti_sysbios_knl_Task_disable__E  $Tramp$TT$L$PI$$ti_sysbios_knl_Task_disable__E
   1001c0f5     00008de0     00001786   drivers_cc26xxware.aem3 : PowerCC26XX.oem3 (.text:Power_sleep)
                             0000426c   rom_sysbios.aem3 : rom_sysbios.obj (.text:ti_sysbios_knl_Event_pend__E)
                             0000629a                    : rom_sysbios.obj (.text:ti_sysbios_knl_Event_post__E)
                             00007e76   SeniorProj_pem3.oem3 (.text:ti_sysbios_BIOS_atExitFunc__I)
ti_sysbios_knl_Semaphore_create  $Tramp$TT$L$PI$$ti_sysbios_knl_Semaphore_create
   1001b5ad     00008de8     000013b8   EasyLink.obj (.text:EasyLink_init)
xdc_runtime_Error_init__E  $Tramp$TT$L$PI$$xdc_runtime_Error_init__E
   1001c841     00008df0     000013a8   EasyLink.obj (.text:EasyLink_init)
                             00007f68   SeniorProj_pem3.oem3 (.text:malloc)
ti_sysbios_knl_Semaphore_post__E  $Tramp$TT$L$PI$$ti_sysbios_knl_Semaphore_post__E
   1001ac41     00008df8     00001326   EasyLink.obj (.text:EasyLink_init)
                             000013ce   EasyLink.obj (.text:EasyLink_init)
                             000013d8   EasyLink.obj (.text:EasyLink_init)
                             000024b2   EasyLink.obj (.text:rxDoneCallback)
                             000030d4   display.aem3 : DisplaySharp.oem3 (.text:DisplaySharp_open)
                             00003204   EasyLink.obj (.text:EasyLink_transmit)
                             0000458a   display.aem3 : DisplaySharp.oem3 (.text:DisplaySharp_put5)
                             00004720   EasyLink.obj (.text:EasyLink_enableRxAddrFilter)
                             00004a5a   display.aem3 : DisplaySharp.oem3 (.text:DisplaySharp_control)
                             0000563e   drivers_cc26xxware.aem3 : PINCC26XX.oem3 (.text:PIN_open)
                             000060ca   rf_singleMode_cc26xxware.aem3 : RFCC26XX_singleMode.oem3 (.text:fsmPowerDownState)
                             00006414   drivers_cc26xxware.aem3 : PINCC26XX.oem3 (.text:PIN_add)
                             00006c8a   display.aem3 : DisplayUart.oem3 (.text:DisplayUart_put5)
                             0000702c   rf_singleMode_cc26xxware.aem3 : RFCC26XX_singleMode.oem3 (.text:syncCb)
                             00007290   display.aem3 : DisplaySharp.oem3 (.text:DisplaySharp_close)
                             00007d18                : DisplaySharp.oem3 (.text:DisplaySharp_clear)
                             00008bd4   drivers_cc26xxware.aem3 : SPICC26XXDMA.oem3 (.text:SPICC26XXDMA_transferCallback)
                             00008bdc                           : UARTCC26XX.oem3 (.text:readSemCallback)
                             00008bf4                           : UARTCC26XX.oem3 (.text:writeSemCallback)
ti_sysbios_knl_Semaphore_pend__E  $Tramp$TT$L$PI$$ti_sysbios_knl_Semaphore_pend__E
   1001a0cd     00008e00     0000116e   EasyLink.obj (.text:EasyLink_init)
                             000027c6   EasyLink.obj (.text:EasyLink_receiveAsync)
                             00003070   display.aem3 : DisplaySharp.oem3 (.text:DisplaySharp_open)
                             00003124   EasyLink.obj (.text:EasyLink_transmit)
                             00003676   drivers_cc26xxware.aem3 : UARTCC26XX.oem3 (.text:UARTCC26XX_read)
                             00003b88   rf_singleMode_cc26xxware.aem3 : RFCC26XX_singleMode.oem3 (.text:RF_close)
                             00003e9e   drivers_cc26xxware.aem3 : UARTCC26XX.oem3 (.text:UARTCC26XX_write)
                             00003eda                           : UARTCC26XX.oem3 (.text:UARTCC26XX_write)
                             000044d2   display.aem3 : DisplaySharp.oem3 (.text:DisplaySharp_put5)
                             0000469c   EasyLink.obj (.text:EasyLink_enableRxAddrFilter)
                             000049ec   display.aem3 : DisplaySharp.oem3 (.text:DisplaySharp_control)
                             00004a2e                : DisplaySharp.oem3 (.text:DisplaySharp_control)
                             00004a68                : DisplaySharp.oem3 (.text:DisplaySharp_control)
                             00005138   drivers_cc26xxware.aem3 : SPICC26XXDMA.oem3 (.text:SPICC26XXDMA_transfer)
                             0000514e                           : SPICC26XXDMA.oem3 (.text:SPICC26XXDMA_transfer)
                             000055d6                           : PINCC26XX.oem3 (.text:PIN_open)
                             00005d3c   rf_singleMode_cc26xxware.aem3 : RFCC26XX_singleMode.oem3 (.text:RF_pendCmd)
                             000061da   drivers_cc26xxware.aem3 : UARTCC26XX.oem3 (.text:writeTxFifoFlush)
                             000063e8                           : PINCC26XX.oem3 (.text:PIN_add)
                             00006c46   display.aem3 : DisplayUart.oem3 (.text:DisplayUart_put5)
                             00007260                : DisplaySharp.oem3 (.text:DisplaySharp_close)
                             00007cfc                : DisplaySharp.oem3 (.text:DisplaySharp_clear)
ti_sysbios_knl_Clock_start__E  $Tramp$TT$L$PI$$ti_sysbios_knl_Clock_start__E
   1001bfe3     00008e08     00000d18   rf_singleMode_cc26xxware.aem3 : RFCC26XX_singleMode.oem3 (.text:fsmActiveState)
                             00001eb0                                 : RFCC26XX_singleMode.oem3 (.text:RF_postCmd)
                             00002778   drivers_cc26xxware.aem3 : PowerCC26XX_calibrateRCOSC.oem3 (.text:PowerCC26XX_doCalibrate)
                             00003574                           : PowerCC26XX.oem3 (.text:Power_init)
                             00004794   power_cc26xx_tirtos.aem3 : PowerCC26XX_tirtos.oem3 (.text:PowerCC26XX_standbyPolicy)
                             000056d8   drivers_cc26xxware.aem3 : UARTCC26XX.oem3 (.text:writeFinishedDoCallback)
                             000057d2                           : PowerCC26XX.oem3 (.text:switchXOSCHFclockFunc)
                             00005da0                           : PowerCC26XX.oem3 (.text:disableLFClockQualifiers)
                             0000608c   rf_singleMode_cc26xxware.aem3 : RFCC26XX_singleMode.oem3 (.text:decActiveClientCnt)
                             00006930                                 : RFCC26XX_singleMode.oem3 (.text:fsmXOSCState)
                             00006e86   drivers_cc26xxware.aem3 : PowerCC26XX.oem3 (.text:configureXOSCHF)
                             0000723e                           : UARTCC26XX.oem3 (.text:startTxFifoEmptyClk)
                             00008466   rom_sysbios.aem3 : rom_sysbios.obj (.text:ti_sysbios_knl_Clock_stop__E)
ti_sysbios_knl_Clock_setTimeout__E  $Tramp$TT$L$PI$$ti_sysbios_knl_Clock_setTimeout__E
   1001c2c1     00008e10     00000d10   rf_singleMode_cc26xxware.aem3 : RFCC26XX_singleMode.oem3 (.text:fsmActiveState)
                             00001eaa                                 : RFCC26XX_singleMode.oem3 (.text:RF_postCmd)
                             0000356e   drivers_cc26xxware.aem3 : PowerCC26XX.oem3 (.text:Power_init)
                             0000478e   power_cc26xx_tirtos.aem3 : PowerCC26XX_tirtos.oem3 (.text:PowerCC26XX_standbyPolicy)
                             000056d2   drivers_cc26xxware.aem3 : UARTCC26XX.oem3 (.text:writeFinishedDoCallback)
                             000057cc                           : PowerCC26XX.oem3 (.text:switchXOSCHFclockFunc)
                             00005d9a                           : PowerCC26XX.oem3 (.text:disableLFClockQualifiers)
                             00006086   rf_singleMode_cc26xxware.aem3 : RFCC26XX_singleMode.oem3 (.text:decActiveClientCnt)
                             0000692a                                 : RFCC26XX_singleMode.oem3 (.text:fsmXOSCState)
                             00006e80   drivers_cc26xxware.aem3 : PowerCC26XX.oem3 (.text:configureXOSCHF)
                             00007238                           : UARTCC26XX.oem3 (.text:startTxFifoEmptyClk)
ti_sysbios_family_arm_m3_Hwi_restoreFxn__E  $Tramp$TT$L$PI$$ti_sysbios_family_arm_m3_Hwi_restoreFxn__E
   1001c219     00008e18     00000ccc   rf_singleMode_cc26xxware.aem3 : RFCC26XX_singleMode.oem3 (.text:fsmActiveState)
                             00000d5a                                 : RFCC26XX_singleMode.oem3 (.text:fsmActiveState)
                             00000d7a                                 : RFCC26XX_singleMode.oem3 (.text:fsmActiveState)
                             00001e50                                 : RFCC26XX_singleMode.oem3 (.text:RF_postCmd)
                             00001eba                                 : RFCC26XX_singleMode.oem3 (.text:RF_postCmd)
                             00001f14                                 : RFCC26XX_singleMode.oem3 (.text:RF_postCmd)
                             00002312   drivers_cc26xxware.aem3 : UARTCC26XX.oem3 (.text:UARTCC26XX_open)
                             00002322                           : UARTCC26XX.oem3 (.text:UARTCC26XX_open)
                             000023a8                           : UARTCC26XX.oem3 (.text:UARTCC26XX_open)
                             00002e94                           : SPICC26XXDMA.oem3 (.text:SPICC26XXDMA_open)
                             00002ea4                           : SPICC26XXDMA.oem3 (.text:SPICC26XXDMA_open)
                             00002f02                           : SPICC26XXDMA.oem3 (.text:SPICC26XXDMA_open)
                             00003654                           : UARTCC26XX.oem3 (.text:UARTCC26XX_read)
                             00003692                           : UARTCC26XX.oem3 (.text:UARTCC26XX_read)
                             00003b6c   rf_singleMode_cc26xxware.aem3 : RFCC26XX_singleMode.oem3 (.text:RF_close)
                             00003bce                                 : RFCC26XX_singleMode.oem3 (.text:RF_close)
                             00003e56   drivers_cc26xxware.aem3 : UARTCC26XX.oem3 (.text:UARTCC26XX_write)
                             00003e72                           : UARTCC26XX.oem3 (.text:UARTCC26XX_write)
                             00003f10                           : UARTCC26XX.oem3 (.text:UARTCC26XX_write)
                             00004126                           : SPICC26XXDMA.oem3 (.text:SPICC26XXDMA_transferCancel)
                             0000419a                           : SPICC26XXDMA.oem3 (.text:SPICC26XXDMA_transferCancel)
                             000041f0                           : SPICC26XXDMA.oem3 (.text:SPICC26XXDMA_transferCancel)
                             0000464a                           : PINCC26XX.oem3 (.text:PINCC26XX_setIoCfg)
                             000048da                           : PowerCC26XX.oem3 (.text:Power_releaseDependency)
                             00004b4e                           : PowerCC26XX.oem3 (.text:Power_setDependency)
                             00004ba0   rf_singleMode_cc26xxware.aem3 : RFCC26XX_singleMode.oem3 (.text:RF_open)
                             00004bae                                 : RFCC26XX_singleMode.oem3 (.text:RF_open)
                             000050c6   drivers_cc26xxware.aem3 : SPICC26XXDMA.oem3 (.text:SPICC26XXDMA_transfer)
                             000050d8                           : SPICC26XXDMA.oem3 (.text:SPICC26XXDMA_transfer)
                             0000510a                           : SPICC26XXDMA.oem3 (.text:SPICC26XXDMA_transfer)
                             0000568e                           : UARTCC26XX.oem3 (.text:writeFinishedDoCallback)
                             000057fa                           : PowerCC26XX.oem3 (.text:switchXOSCHFclockFunc)
                             000059d2                           : UARTCC26XX.oem3 (.text:UARTCC26XX_writeCancel)
                             000059de                           : UARTCC26XX.oem3 (.text:UARTCC26XX_writeCancel)
                             00005a20                           : UARTCC26XX.oem3 (.text:UARTCC26XX_writeCancel)
                             00005caa   rf_singleMode_cc26xxware.aem3 : RFCC26XX_singleMode.oem3 (.text:swiFxnHw)
                             00005cc4                                 : RFCC26XX_singleMode.oem3 (.text:swiFxnHw)
                             00005f38   drivers_cc26xxware.aem3 : UARTCC26XX.oem3 (.text:UARTCC26XX_close)
                             00006092   rf_singleMode_cc26xxware.aem3 : RFCC26XX_singleMode.oem3 (.text:decActiveClientCnt)
                             000064d0   drivers_cc26xxware.aem3 : UARTCC26XX.oem3 (.text:UARTCC26XX_readCancel)
                             000064dc                           : UARTCC26XX.oem3 (.text:UARTCC26XX_readCancel)
                             000064e6                           : UARTCC26XX.oem3 (.text:UARTCC26XX_readCancel)
                             000065e8   rf_singleMode_cc26xxware.aem3 : RFCC26XX_singleMode.oem3 (.text:RF_getCurrentTime)
                             000065f0                                 : RFCC26XX_singleMode.oem3 (.text:RF_getCurrentTime)
                             00006756   drivers_cc26xxware.aem3 : UARTCC26XX.oem3 (.text:UARTCC26XX_control)
                             00006b16                           : UDMACC26XX.oem3 (.text:UDMACC26XX_open)
                             00006c34                           : SPICC26XXDMA.oem3 (.text:SPICC26XXDMA_close)
                             00006cba                           : PowerCC26XX_calibrateRCOSC.oem3 (.text:PowerCC26XX_initiateCalibration)
                             00006e32                           : SPICC26XXDMA.oem3 (.text:SPICC26XXDMA_swiFxn)
                             00006f32   rf_singleMode_cc26xxware.aem3 : RFCC26XX_singleMode.oem3 (.text:ratChanFree)
                             0000747a   drivers_cc26xxware.aem3 : PINCC26XX.oem3 (.text:PIN_setOutputEnable)
                             00007654                           : RingBuf.oem3 (.text:RingBuf_put)
                             0000767e                           : RingBuf.oem3 (.text:RingBuf_put)
                             000077c2                           : RingBuf.oem3 (.text:RingBuf_get)
                             000077ca                           : RingBuf.oem3 (.text:RingBuf_get)
                             0000795e                           : UARTCC26XX.oem3 (.text:UARTCC26XX_swiIntFxn)
                             00007b78                           : UDMACC26XX.oem3 (.text:UDMACC26XX_close)
                             00007c7c   rf_singleMode_cc26xxware.aem3 : RFCC26XX_singleMode.oem3 (.text:Q_push)
                             00007da4   drivers_cc26xxware.aem3 : PowerCC26XX.oem3 (.text:Power_releaseConstraint)
                             00007dd4                           : PowerCC26XX.oem3 (.text:Power_setConstraint)
                             00008188   rf_singleMode_cc26xxware.aem3 : RFCC26XX_singleMode.oem3 (.text:Q_end)
                             0000824e   drivers_cc26xxware.aem3 : List.oem3 (.text:List_put)
                             000083e8                           : PowerCC26XX.oem3 (.text:Power_unregisterNotify)
                             00008768   rf_singleMode_cc26xxware.aem3 : RFCC26XX_singleMode.oem3 (.text:Q_pop)
ti_sysbios_family_arm_m3_Hwi_disableFxn__E  $Tramp$TT$L$PI$$ti_sysbios_family_arm_m3_Hwi_disableFxn__E
   1001c149     00008e20     00000cae   rf_singleMode_cc26xxware.aem3 : RFCC26XX_singleMode.oem3 (.text:fsmActiveState)
                             00000d3a                                 : RFCC26XX_singleMode.oem3 (.text:fsmActiveState)
                             00001d90                                 : RFCC26XX_singleMode.oem3 (.text:RF_postCmd)
                             00001e6a                                 : RFCC26XX_singleMode.oem3 (.text:RF_postCmd)
                             00002308   drivers_cc26xxware.aem3 : UARTCC26XX.oem3 (.text:UARTCC26XX_open)
                             000023a2                           : UARTCC26XX.oem3 (.text:UARTCC26XX_open)
                             00002e88                           : SPICC26XXDMA.oem3 (.text:SPICC26XXDMA_open)
                             00002efa                           : SPICC26XXDMA.oem3 (.text:SPICC26XXDMA_open)
                             0000363c                           : UARTCC26XX.oem3 (.text:UARTCC26XX_read)
                             0000367e                           : UARTCC26XX.oem3 (.text:UARTCC26XX_read)
                             00003b54   rf_singleMode_cc26xxware.aem3 : RFCC26XX_singleMode.oem3 (.text:RF_close)
                             00003e38   drivers_cc26xxware.aem3 : UARTCC26XX.oem3 (.text:UARTCC26XX_write)
                             00003e5a                           : UARTCC26XX.oem3 (.text:UARTCC26XX_write)
                             00003eb2                           : UARTCC26XX.oem3 (.text:UARTCC26XX_write)
                             00003efc                           : UARTCC26XX.oem3 (.text:UARTCC26XX_write)
                             0000411a                           : SPICC26XXDMA.oem3 (.text:SPICC26XXDMA_transferCancel)
                             00004172                           : SPICC26XXDMA.oem3 (.text:SPICC26XXDMA_transferCancel)
                             0000462c                           : PINCC26XX.oem3 (.text:PINCC26XX_setIoCfg)
                             00004826                           : PowerCC26XX.oem3 (.text:Power_releaseDependency)
                             00004a9e                           : PowerCC26XX.oem3 (.text:Power_setDependency)
                             00004b96   rf_singleMode_cc26xxware.aem3 : RFCC26XX_singleMode.oem3 (.text:RF_open)
                             000050bc   drivers_cc26xxware.aem3 : SPICC26XXDMA.oem3 (.text:SPICC26XXDMA_transfer)
                             000050e0                           : SPICC26XXDMA.oem3 (.text:SPICC26XXDMA_transfer)
                             00005676                           : UARTCC26XX.oem3 (.text:writeFinishedDoCallback)
                             00005784                           : PowerCC26XX.oem3 (.text:switchXOSCHFclockFunc)
                             000059c2                           : UARTCC26XX.oem3 (.text:UARTCC26XX_writeCancel)
                             00005a0a                           : UARTCC26XX.oem3 (.text:UARTCC26XX_writeCancel)
                             00005c66   rf_singleMode_cc26xxware.aem3 : RFCC26XX_singleMode.oem3 (.text:swiFxnHw)
                             00005f30   drivers_cc26xxware.aem3 : UARTCC26XX.oem3 (.text:UARTCC26XX_close)
                             0000603c   rf_singleMode_cc26xxware.aem3 : RFCC26XX_singleMode.oem3 (.text:decActiveClientCnt)
                             000064b8   drivers_cc26xxware.aem3 : UARTCC26XX.oem3 (.text:UARTCC26XX_readCancel)
                             000064d4                           : UARTCC26XX.oem3 (.text:UARTCC26XX_readCancel)
                             000065da   rf_singleMode_cc26xxware.aem3 : RFCC26XX_singleMode.oem3 (.text:RF_getCurrentTime)
                             0000672e   drivers_cc26xxware.aem3 : UARTCC26XX.oem3 (.text:UARTCC26XX_control)
                             00006adc                           : UDMACC26XX.oem3 (.text:UDMACC26XX_open)
                             00006c2a                           : SPICC26XXDMA.oem3 (.text:SPICC26XXDMA_close)
                             00006ca6                           : PowerCC26XX_calibrateRCOSC.oem3 (.text:PowerCC26XX_initiateCalibration)
                             00006e0c                           : SPICC26XXDMA.oem3 (.text:SPICC26XXDMA_swiFxn)
                             00006ef4   rf_singleMode_cc26xxware.aem3 : RFCC26XX_singleMode.oem3 (.text:ratChanFree)
                             00007464   drivers_cc26xxware.aem3 : PINCC26XX.oem3 (.text:PIN_setOutputEnable)
                             00007646                           : RingBuf.oem3 (.text:RingBuf_put)
                             0000779a                           : RingBuf.oem3 (.text:RingBuf_get)
                             00007946                           : UARTCC26XX.oem3 (.text:UARTCC26XX_swiIntFxn)
                             00007b4e                           : UDMACC26XX.oem3 (.text:UDMACC26XX_close)
                             00007c5e   rf_singleMode_cc26xxware.aem3 : RFCC26XX_singleMode.oem3 (.text:Q_push)
                             00007c66                                 : RFCC26XX_singleMode.oem3 (.text:Q_push)
                             00007d84   drivers_cc26xxware.aem3 : PowerCC26XX.oem3 (.text:Power_releaseConstraint)
                             00007db4                           : PowerCC26XX.oem3 (.text:Power_setConstraint)
                             0000816c   rf_singleMode_cc26xxware.aem3 : RFCC26XX_singleMode.oem3 (.text:Q_end)
                             000083d8   drivers_cc26xxware.aem3 : PowerCC26XX.oem3 (.text:Power_unregisterNotify)
                             0000875c   rf_singleMode_cc26xxware.aem3 : RFCC26XX_singleMode.oem3 (.text:Q_pop)
                             00008c2a   tirtosport.aem3 : HwiP_tirtos.oem3 (.text:HwiP_disable)
ti_sysbios_knl_Task_sleep__E  $Tramp$TT$L$PI$$ti_sysbios_knl_Task_sleep__E
   1001a96d     00008e28     00000770   GPS.obj (.text:GPS)
                             00003d64   lcd.aem3 : SharpGrLib.oem3 (.text:SharpGrLib_flush)
                             00003df6            : SharpGrLib.oem3 (.text:SharpGrLib_flush)
                             00004ebe            : SharpGrLib.oem3 (.text:SharpGrLib_clearScreen)
                             00004ef4            : SharpGrLib.oem3 (.text:SharpGrLib_clearScreen)
                             000067bc   CoordinatorTask.obj (.text:coordinatorTaskFunction)
xdc_runtime_System_abort__E  $Tramp$TT$L$PI$$xdc_runtime_System_abort__E
   1001c749     00008e30     00000656   GPS.obj (.text:GPS)
                             00003c34   CoordinatorRFTask.obj (.text:coordinatorRFTaskFunction)
                             00003c62   CoordinatorRFTask.obj (.text:coordinatorRFTaskFunction)
                             00003c9a   CoordinatorRFTask.obj (.text:coordinatorRFTaskFunction)
                             00003cce   CoordinatorRFTask.obj (.text:coordinatorRFTaskFunction)
                             00004dda   CoordinatorRFTask.obj (.text:CoordinatorRFTask_init)
                             00006dc2   CoordinatorRFTask.obj (.text:sendAck)
                             000075c0   SeniorProj.obj (.text:main)

[61 trampolines]
[331 trampoline calls]


GLOBAL SYMBOLS: SORTED ALPHABETICALLY BY Name 

address   name                                                                      
-------   ----                                                                      
0000b160  BoardGpioInitTable                                                        
00004dc1  CoordinatorRFTask_init                                                    
000088fd  CoordinatorRadioTask_registerPacketReceivedCallback                       
00005ad1  CoordinatorTask_init                                                      
00007ced  DisplaySharp_clear                                                        
000067d9  DisplaySharp_clearLines                                                   
0000724d  DisplaySharp_close                                                        
000049c9  DisplaySharp_control                                                      
0000b220  DisplaySharp_fxnTable                                                     
00008bc9  DisplaySharp_getType                                                      
00002fc1  DisplaySharp_open                                                         
000044b5  DisplaySharp_put5                                                         
000043cf  DisplayUart_clear                                                         
00005203  DisplayUart_clearLines                                                    
0000861f  DisplayUart_close                                                         
00008c01  DisplayUart_control                                                       
0000b2e8  DisplayUart_fxnTable                                                      
00008c07  DisplayUart_getType                                                       
00007083  DisplayUart_open                                                          
00006c3b  DisplayUart_put5                                                          
0000b1b4  Display_config                                                            
0000b3d5  Display_defaultParams                                                     
000072e1  Display_doOpen                                                            
00008c0d  Display_doParamsInit                                                      
00008209  Display_doPut5                                                            
00007329  EastWest                                                                  
00004675  EasyLink_enableRxAddrFilter                                               
00001159  EasyLink_init                                                             
000027a1  EasyLink_receiveAsync                                                     
00003101  EasyLink_transmit                                                         
000005ed  GPS                                                                       
00007bb5  GPS_init                                                                  
00008351  GrContextInit                                                             
00007035  GrLineDrawH                                                               
00005b59  GrRectFill                                                                
0000147d  GrStringDraw                                                              
00008c2b  HwiP_disable                                                              
UNDEFED   HwiP_restore                                                              
00005811  Latitude                                                                  
00008b79  List_empty                                                                
00008c2f  List_head                                                                 
00008c33  List_next                                                                 
0000822f  List_put                                                                  
000085d1  List_remove                                                               
0000589f  Longitude                                                                 
00008119  NOROM_AONBatMonTemperatureGetDegC                                         
00008911  NOROM_AONRTCCurrent64BitValueGet                                          
00008639  NOROM_AONRTCCurrentCompareValueGet                                        
00008add  NOROM_CPUcpsid                                                            
00008ae9  NOROM_CPUcpsie                                                            
00007371  NOROM_ChipInfo_GetChipFamily                                              
000070d1  NOROM_ChipInfo_GetChipType                                                
00006209  NOROM_ChipInfo_GetHwRevision                                              
00008651  NOROM_ChipInfo_GetPackageType                                             
00007755  NOROM_DDI16BitfieldRead                                                   
000073b9  NOROM_DDI16BitfieldWrite                                                  
00007f8d  NOROM_DDI32RegWrite                                                       
000084f1  NOROM_OSCClockSourceGet                                                   
0000711d  NOROM_OSCClockSourceSet                                                   
000069b9  NOROM_OSCHF_AttemptToSwitchToXosc                                         
00007be9  NOROM_OSCHF_SwitchToRcOscTurnOffXosc                                      
00008669  NOROM_OSCHF_TurnOnXosc                                                    
00007815  NOROM_OSC_HPOSCRelativeFrequencyOffsetGet                                 
0000534f  NOROM_RFCAdi3VcoLdoVoltageMode                                            
00008681  NOROM_RFCCpeIntGetAndClear                                                
00008375  NOROM_RFCDoorbellSendTo                                                   
0000552b  NOROM_RFCRTrim                                                            
00008395  NOROM_RFCRfTrimRead                                                       
000089f9  NOROM_RFCRfTrimSet                                                        
00007851  NOROM_RFCSynthPowerDown                                                   
00005e61  NOROM_SetupAfterColdResetWakeupFromShutDownCfg1                           
000043d1  NOROM_SetupAfterColdResetWakeupFromShutDownCfg2                           
0000323d  NOROM_SetupAfterColdResetWakeupFromShutDownCfg3                           
00008699  NOROM_SetupGetTrimForAdcShModeEn                                          
000086b1  NOROM_SetupGetTrimForAdcShVbufEn                                          
00006359  NOROM_SetupGetTrimForAmpcompCtrl                                          
000086c9  NOROM_SetupGetTrimForAmpcompTh1                                           
0000850d  NOROM_SetupGetTrimForAmpcompTh2                                           
00006509  NOROM_SetupGetTrimForAnabypassValue1                                      
000086e1  NOROM_SetupGetTrimForDblrLoopFilterResetVoltage                           
00007fb9  NOROM_SetupGetTrimForRadcExtCfg                                           
000086f9  NOROM_SetupGetTrimForRcOscLfIBiasTrim                                     
00008529  NOROM_SetupGetTrimForRcOscLfRtuneCtuneTrim                                
000083b5  NOROM_SetupGetTrimForXoscHfCtl                                            
00008a09  NOROM_SetupGetTrimForXoscHfFastStart                                      
00008a19  NOROM_SetupGetTrimForXoscHfIbiastherm                                     
00008711  NOROM_SetupGetTrimForXoscLfRegulatorAndCmirrwrRatio                       
00007d51  NOROM_SetupSetAonRtcSubSecInc                                             
00006f45  NOROM_SetupSetCacheModeAccordingToCcfgSetting                             
00005205  NOROM_SetupTrimDevice                                                     
00006a15  NOROM_SysCtrlAdjustRechargeAfterPowerDown                                 
0000198d  NOROM_SysCtrlSetRechargeBeforePowerDown                                   
00006571  NOROM_SysCtrl_DCDC_VoltageConditionalControl                              
00008925  NOROM_ThisCodeIsBuiltForCC26xxHwRev22AndLater_HaltIfViolated              
00008a99  NOROM_VIMSModeGet                                                         
00007401  NorthSouth                                                                
000085eb  NumLeadingZeros                                                           
0000788d  PINCC26XX_getConfig                                                       
00008255  PINCC26XX_getPinCount                                                     
0000b3bc  PINCC26XX_hwAttrs                                                         
00007fe5  PINCC26XX_setMux                                                          
200022dc  PIN_HandleTable                                                           
20002874  PIN_NumPins                                                               
000063c5  PIN_add                                                                   
000084b5  PIN_close                                                                 
00008729  PIN_getConfig                                                             
00008939  PIN_getOutputValue                                                        
00002131  PIN_init                                                                  
000055c5  PIN_open                                                                  
00008af5  PIN_registerIntCb                                                         
00006a71  PIN_remove                                                                
00007c1d  PIN_setConfig                                                             
00007a31  PIN_setInterrupt                                                          
00007449  PIN_setOutputEnable                                                       
000078c9  PIN_setOutputValue                                                        
00006839  PowerCC26XX_RCOSC_clockFunc                                               
00005f51  PowerCC26XX_auxISR                                                        
00006431  PowerCC26XX_calibrate                                                     
0000b380  PowerCC26XX_config                                                        
0000261d  PowerCC26XX_doCalibrate                                                   
00006c95  PowerCC26XX_initiateCalibration                                           
200028b0  PowerCC26XX_module                                                        
0000474d  PowerCC26XX_standbyPolicy                                                 
00008b01  Power_getConstraintMask                                                   
00008b0d  Power_getDependencyCount                                                  
000084d3  Power_getTransitionLatency                                                
00008741  Power_idleFunc                                                            
00003495  Power_init                                                                
00008141  Power_registerNotify                                                      
00007d81  Power_releaseConstraint                                                   
00004821  Power_releaseDependency                                                   
00007db1  Power_setConstraint                                                       
00004a99  Power_setDependency                                                       
00001765  Power_sleep                                                               
000083d5  Power_unregisterNotify                                                    
0000b3d1  RFCC26XX_hwAttrs                                                          
0000894d  RF_Params_init                                                            
00003b1d  RF_close                                                                  
20002cac  RF_cmdFs                                                                  
20002cc4  RF_cmdFs_preDef                                                           
20002c2c  RF_cmdPropRadioDivSetup                                                   
20002c4c  RF_cmdPropRadioSetup_2_4G_fsk                                             
20002b9c  RF_cmdPropRxAdv_preDef                                                    
20002cdc  RF_cmdPropTx                                                              
20002cf4  RF_cmdPropTx_preDef                                                       
000065d9  RF_getCurrentTime                                                         
00004b69  RF_open                                                                   
20002b50  RF_pCmdFs_preDef                                                          
20002b40  RF_pCmdPropRadioDivSetup_fsk                                              
20002b44  RF_pCmdPropRadioDivSetup_lrm                                              
20002b48  RF_pCmdPropRadioDivSetup_ook                                              
20002b3c  RF_pCmdPropRadioSetup_2_4G_fsk                                            
20002b58  RF_pCmdPropRxAdv_preDef                                                   
20002b54  RF_pCmdPropTx_preDef                                                      
20002b4c  RF_pCmdRadioSetup_hsm                                                     
20002b60  RF_pCmdRxHS                                                               
20002b5c  RF_pCmdTxHS                                                               
20002b28  RF_pProp_2_4G_fsk                                                         
20002b2c  RF_pProp_fsk                                                              
20002b38  RF_pProp_hsm                                                              
20002b30  RF_pProp_lrm                                                              
20002b34  RF_pProp_ook                                                              
00005ce9  RF_pendCmd                                                                
00001d85  RF_postCmd                                                                
20002d84  RF_prop                                                                   
20002d94  RF_prop_2_4G_fsk                                                          
000074d9  RF_runCmd                                                                 
00007689  ResetISR                                                                  
000089c5  RingBuf_construct                                                         
00007795  RingBuf_get                                                               
00007641  RingBuf_put                                                               
UNDEFED   SHT$$INIT_ARRAY$$Base                                                     
UNDEFED   SHT$$INIT_ARRAY$$Limit                                                    
00006be1  SPICC26XXDMA_close                                                        
000048f5  SPICC26XXDMA_control                                                      
0000b000  SPICC26XXDMA_fxnTable                                                     
00008aa7  SPICC26XXDMA_init                                                         
00002e79  SPICC26XXDMA_open                                                         
000050a9  SPICC26XXDMA_transfer                                                     
00004111  SPICC26XXDMA_transferCancel                                               
00008961  SPI_Params_init                                                           
00008b83  SPI_close                                                                 
0000b1d8  SPI_config                                                                
0000b268  SPI_defaultParams                                                         
00007de1  SPI_open                                                                  
00008b8d  SPI_transfer                                                              
000081b9  SafeHapiVoid                                                              
00008011  SharpGrLib_init                                                           
00007521  Status                                                                    
00007569  Time                                                                      
00005ed9  UARTCC26XX_close                                                          
00006711  UARTCC26XX_control                                                        
0000b18c  UARTCC26XX_fxnTable                                                       
00003a0d  UARTCC26XX_hwiIntFxn                                                      
00008771  UARTCC26XX_init                                                           
000022f5  UARTCC26XX_open                                                           
000035b1  UARTCC26XX_read                                                           
0000649d  UARTCC26XX_readCancel                                                     
00008c13  UARTCC26XX_readPolling                                                    
00007941  UARTCC26XX_swiIntFxn                                                      
00003e29  UARTCC26XX_write                                                          
000059b9  UARTCC26XX_writeCancel                                                    
00008c19  UARTCC26XX_writePolling                                                   
00008789  UART_Params_init                                                          
00008ba1  UART_close                                                                
0000b304  UART_config                                                               
0000b1fc  UART_defaultParams                                                        
00007a69  UART_init                                                                 
00007e11  UART_open                                                                 
00008bab  UART_read                                                                 
00008bb5  UART_write                                                                
00007b49  UDMACC26XX_close                                                          
0000b390  UDMACC26XX_config                                                         
00008bbf  UDMACC26XX_hwiIntFxn                                                      
00006acd  UDMACC26XX_open                                                           
00000000  __ASM__                                                                   
0000006d  __ISA__                                                                   
0000007f  __PLAT__                                                                  
20005000  __STACK_END                                                               
00000300  __STACK_SIZE                                                              
000000a6  __TARG__                                                                  
0000b708  __TI_CINIT_Base                                                           
0000b788  __TI_CINIT_Limit                                                          
0000b6a8  __TI_Handler_Table_Base                                                   
0000b6b4  __TI_Handler_Table_Limit                                                  
00005351  __TI_auto_init                                                            
000066a9  __TI_decompress_lzss                                                      
00008ab5  __TI_decompress_none                                                      
ffffffff  __TI_pprof_out_hndl                                                       
ffffffff  __TI_prof_data_size                                                       
ffffffff  __TI_prof_data_start                                                      
0000b400  __TI_static_base__                                                        
00008b19  __TI_zero_init                                                            
000000cb  __TRDR__                                                                  
00007753  __aeabi_idiv0                                                             
000087e9  __aeabi_lmul                                                              
00005de5  __aeabi_memclr                                                            
00005de5  __aeabi_memclr4                                                           
00005de5  __aeabi_memclr8                                                           
0000548f  __aeabi_memcpy                                                            
0000548f  __aeabi_memcpy4                                                           
0000548f  __aeabi_memcpy8                                                           
00005de7  __aeabi_memset                                                            
00005de7  __aeabi_memset4                                                           
00005de7  __aeabi_memset8                                                           
000077d5  __aeabi_uidiv                                                             
000077d5  __aeabi_uidivmod                                                          
00001b91  __aeabi_uldivmod                                                          
ffffffff  __binit__                                                                 
ffffffff  __c_args__                                                                
0001ffa8  __ccfg                                                                    
20004d00  __stack                                                                   
000087d1  _args_main                                                                
00007689  _c_int00                                                                  
20002db4  _lock                                                                     
00008983  _nop                                                                      
0000897b  _register_lock                                                            
00008975  _register_unlock                                                          
20002db8  _unlock                                                                   
ffffffff  binit                                                                     
00006641  comparePackets                                                            
200027b4  coordinatorEvent                                                          
200023c4  coordinatorRFTask                                                         
20002414  coordinatorTask                                                           
000071b5  copy_in                                                                   
0000b3a0  displaySharpHWattrs                                                       
20002358  displaySharpObject                                                        
0000b334  displayUartHWAttrs                                                        
2000264c  displayUartObject                                                         
200028a5  driverlib_release_0_47020                                                 
0000af38  g_sFontFixed6x8                                                           
0000b288  g_sharpFxns                                                               
200025bc  knownSensorNodes                                                          
20002dbc  ledPinTable                                                               
000075b1  main                                                                      
20002e34  main_func_sp                                                              
00007f5f  malloc                                                                    
0000548f  memcpy                                                                    
00005ded  memset                                                                    
200029c0  pOverrides                                                                
20002a28  pOverrides_fsk                                                            
200027dc  radioOperationEvent                                                       
0000b054  resourceDB                                                                
000087b9  reverse                                                                   
20002d24  shape                                                                     
20002d3c  shape_preDef                                                              
0000b128  spiCC26XXDMAHWAttrs                                                       
20001aa0  spiCC26XXDMAObjects                                                       
00008989  strlen                                                                    
000081e1  strncmp                                                                   
200015a0  task0Stack                                                                
20002464  task0Struct                                                               
20002834  test                                                                      
200001a4  ti_sysbios_BIOS_Module__state__V                                          
1001bc29  ti_sysbios_BIOS_RtsGateProxy_Handle__label__S                             
UNDEFED   ti_sysbios_BIOS_RtsGateProxy_Handle__label__S__mangled__                  
1001bab9  ti_sysbios_BIOS_RtsGateProxy_Object__delete__S                            
UNDEFED   ti_sysbios_BIOS_RtsGateProxy_Object__delete__S__mangled__                 
1001c179  ti_sysbios_BIOS_RtsGateProxy_Params__init__S                              
UNDEFED   ti_sysbios_BIOS_RtsGateProxy_Params__init__S__mangled__                   
1001c249  ti_sysbios_BIOS_RtsGateProxy_enter__E                                     
1001c24d  ti_sysbios_BIOS_RtsGateProxy_leave__E                                     
1001c275  ti_sysbios_BIOS_RtsGateProxy_query__E                                     
UNDEFED   ti_sysbios_BIOS_RtsGateProxy_query__E__mangled__                          
00007e71  ti_sysbios_BIOS_atExitFunc__I                                             
00008861  ti_sysbios_BIOS_exitFunc__I                                               
1001c035  ti_sysbios_BIOS_exit__E                                                   
1001bff9  ti_sysbios_BIOS_getCpuFreq__E                                             
00008117  ti_sysbios_BIOS_linkedWithIncorrectBootLibrary__E                         
00008373  ti_sysbios_BIOS_nullFunc__I                                               
000082e5  ti_sysbios_BIOS_registerRTSLock__I                                        
00008309  ti_sysbios_BIOS_removeRTSLock__I                                          
00008415  ti_sysbios_BIOS_rtsLock__I                                                
00008819  ti_sysbios_BIOS_rtsUnlock__I                                              
1001c045  ti_sysbios_BIOS_setThreadType__E                                          
00007ea1  ti_sysbios_BIOS_startFunc__I                                              
1001c055  ti_sysbios_BIOS_start__E                                                  
00005205  ti_sysbios_family_arm_cc26xx_Boot_trimDevice                              
00000502  ti_sysbios_family_arm_cc26xx_Timer_Module__id__C                          
1001bb49  ti_sysbios_family_arm_cc26xx_Timer_Module__startupDone__S                 
200001e4  ti_sysbios_family_arm_cc26xx_Timer_Module__state__V                       
1001ba71  ti_sysbios_family_arm_cc26xx_Timer_Module_startup__E                      
20002ae0  ti_sysbios_family_arm_cc26xx_Timer_Object__table__V                       
00008435  ti_sysbios_family_arm_cc26xx_Timer_dynamicStub__E                         
00008c3f  ti_sysbios_family_arm_cc26xx_Timer_getCount64__E                          
00007ad9  ti_sysbios_family_arm_cc26xx_Timer_getCurrentTick__E                      
1001c251  ti_sysbios_family_arm_cc26xx_Timer_getExpiredTicks__E                     
0000832d  ti_sysbios_family_arm_cc26xx_Timer_getMaxTicks__E                         
1001c255  ti_sysbios_family_arm_cc26xx_Timer_getPeriod__E                           
00007cb9  ti_sysbios_family_arm_cc26xx_Timer_initDevice__I                          
1001a469  ti_sysbios_family_arm_cc26xx_Timer_periodicStub__E                        
1001b769  ti_sysbios_family_arm_cc26xx_Timer_postInit__I                            
00007d1f  ti_sysbios_family_arm_cc26xx_Timer_setNextTick__E                         
1001c259  ti_sysbios_family_arm_cc26xx_Timer_setPeriod__E                           
00007ed1  ti_sysbios_family_arm_cc26xx_Timer_setThreshold__I                        
00006121  ti_sysbios_family_arm_cc26xx_Timer_start__E                               
00000484  ti_sysbios_family_arm_cc26xx_Timer_startupNeeded__C                       
1001b795  ti_sysbios_family_arm_cc26xx_Timer_startup__E                             
200001ec  ti_sysbios_family_arm_cc26xx_TimestampProvider_Module__state__V           
1001bb69  ti_sysbios_family_arm_cc26xx_TimestampProvider_Module_startup__E          
00008ac3  ti_sysbios_family_arm_cc26xx_TimestampProvider_get32__E                   
1001b9d1  ti_sysbios_family_arm_cc26xx_TimestampProvider_get64__E                   
1001c12f  ti_sysbios_family_arm_cc26xx_TimestampProvider_getFreq__E                 
00000504  ti_sysbios_family_arm_cc26xx_TimestampProvider_useClockTimer__C           
00000488  ti_sysbios_family_arm_m3_Hwi_E_alreadyDefined__C                          
0000048c  ti_sysbios_family_arm_m3_Hwi_E_hwiLimitExceeded__C                        
1001aed1  ti_sysbios_family_arm_m3_Hwi_Instance_finalize__E                         
1001a3c9  ti_sysbios_family_arm_m3_Hwi_Instance_init__E                             
20002e46  ti_sysbios_family_arm_m3_Hwi_Module_State_0_excActive__A                  
20002e38  ti_sysbios_family_arm_m3_Hwi_Module_State_0_excContext__A                 
20002e3c  ti_sysbios_family_arm_m3_Hwi_Module_State_0_excStack__A                   
00000506  ti_sysbios_family_arm_m3_Hwi_Module__id__C                                
20002dc4  ti_sysbios_family_arm_m3_Hwi_Module__root__V                              
1001bb89  ti_sysbios_family_arm_m3_Hwi_Module__startupDone__S                       
20000144  ti_sysbios_family_arm_m3_Hwi_Module__state__V                             
1001b1c1  ti_sysbios_family_arm_m3_Hwi_Module_startup__E                            
00000490  ti_sysbios_family_arm_m3_Hwi_NUM_INTERRUPTS__C                            
000002d0  ti_sysbios_family_arm_m3_Hwi_Object__DESC__C                              
00000170  ti_sysbios_family_arm_m3_Hwi_Object__PARAMS__C                            
00000494  ti_sysbios_family_arm_m3_Hwi_Object__count__C                             
1001aab1  ti_sysbios_family_arm_m3_Hwi_Object__create__S                            
1001bba9  ti_sysbios_family_arm_m3_Hwi_Object__delete__S                            
1001be69  ti_sysbios_family_arm_m3_Hwi_Object__destruct__S                          
1001b7c1  ti_sysbios_family_arm_m3_Hwi_Object__get__S                               
00000498  ti_sysbios_family_arm_m3_Hwi_Object__table__C                             
20002d54  ti_sysbios_family_arm_m3_Hwi_Object__table__V                             
1001c13d  ti_sysbios_family_arm_m3_Hwi_Params__init__S                              
0000049c  ti_sysbios_family_arm_m3_Hwi_ccr__C                                       
1001af29  ti_sysbios_family_arm_m3_Hwi_construct                                    
1001ab15  ti_sysbios_family_arm_m3_Hwi_create                                       
1001c25d  ti_sysbios_family_arm_m3_Hwi_delete                                       
1001c261  ti_sysbios_family_arm_m3_Hwi_destruct                                     
1001c149  ti_sysbios_family_arm_m3_Hwi_disableFxn__E                                
1001b299  ti_sysbios_family_arm_m3_Hwi_disableInterrupt__E                          
1001aa49  ti_sysbios_family_arm_m3_Hwi_dispatchC__I                                 
20001e88  ti_sysbios_family_arm_m3_Hwi_dispatchTable                                
1001c89d  ti_sysbios_family_arm_m3_Hwi_dispatch__I                                  
1001c1fb  ti_sysbios_family_arm_m3_Hwi_doSwiRestore__I                              
1001c213  ti_sysbios_family_arm_m3_Hwi_doTaskRestore__I                             
1001c155  ti_sysbios_family_arm_m3_Hwi_enableFxn__E                                 
1001b2dd  ti_sysbios_family_arm_m3_Hwi_enableInterrupt__E                           
1001ca01  ti_sysbios_family_arm_m3_Hwi_excHandlerAsm__I                             
000004a0  ti_sysbios_family_arm_m3_Hwi_excHandlerFunc__C                            
1001bbc9  ti_sysbios_family_arm_m3_Hwi_excHandler__I                                
1001b465  ti_sysbios_family_arm_m3_Hwi_getStackInfo__E                              
1001a699  ti_sysbios_family_arm_m3_Hwi_initNVIC__E                                  
1001c9b9  ti_sysbios_family_arm_m3_Hwi_initStacks__E                                
000004a4  ti_sysbios_family_arm_m3_Hwi_nullIsrFunc__C                               
000004a8  ti_sysbios_family_arm_m3_Hwi_numSparseInterrupts__C                       
e000e000  ti_sysbios_family_arm_m3_Hwi_nvic                                         
1001ca3f  ti_sysbios_family_arm_m3_Hwi_pendSV__I                                    
1001c065  ti_sysbios_family_arm_m3_Hwi_plug__E                                      
1001a319  ti_sysbios_family_arm_m3_Hwi_postInit__I                                  
00008a49  ti_sysbios_family_arm_m3_Hwi_post__E                                      
000004ac  ti_sysbios_family_arm_m3_Hwi_priGroup__C                                  
20000000  ti_sysbios_family_arm_m3_Hwi_ramVectors                                   
00000000  ti_sysbios_family_arm_m3_Hwi_resetVectors                                 
1001c219  ti_sysbios_family_arm_m3_Hwi_restoreFxn__E                                
1001ca57  ti_sysbios_family_arm_m3_Hwi_return                                       
00008c25  ti_sysbios_family_arm_m3_Hwi_setFunc__E                                   
1001be85  ti_sysbios_family_arm_m3_Hwi_setPriority__E                               
1001c203  ti_sysbios_family_arm_m3_Hwi_startup__E                                   
1001c00d  ti_sysbios_family_arm_m3_Hwi_switchFromBootStack__E                       
1001c265  ti_sysbios_family_arm_m3_TaskSupport_Module__startupDone__S               
1001c96d  ti_sysbios_family_arm_m3_TaskSupport_buildTaskStack                       
1001c161  ti_sysbios_family_arm_m3_TaskSupport_getStackAlignment__E                 
1001ca59  ti_sysbios_family_arm_m3_TaskSupport_glue                                 
000004b0  ti_sysbios_family_arm_m3_TaskSupport_stackAlignment__C                    
1001b49d  ti_sysbios_family_arm_m3_TaskSupport_start__E                             
1001ca69  ti_sysbios_family_arm_m3_TaskSupport_swap__E                              
1001ca21  ti_sysbios_family_xxx_Hwi_switchAndRunFunc                                
1001bbe9  ti_sysbios_gates_GateHwi_Handle__label__S                                 
1001b463  ti_sysbios_gates_GateHwi_Instance_init__E                                 
0000021c  ti_sysbios_gates_GateHwi_Module__FXNS__C                                  
00000508  ti_sysbios_gates_GateHwi_Module__id__C                                    
20002dcc  ti_sysbios_gates_GateHwi_Module__root__V                                  
000002f0  ti_sysbios_gates_GateHwi_Object__DESC__C                                  
00000430  ti_sysbios_gates_GateHwi_Object__PARAMS__C                                
1001ba95  ti_sysbios_gates_GateHwi_Object__create__S                                
1001bc09  ti_sysbios_gates_GateHwi_Object__delete__S                                
1001c16d  ti_sysbios_gates_GateHwi_enter__E                                         
1001c21f  ti_sysbios_gates_GateHwi_leave__E                                         
1001c269  ti_sysbios_gates_GateHwi_query__E                                         
1001bc29  ti_sysbios_gates_GateMutex_Handle__label__S                               
000005cc  ti_sysbios_gates_GateMutex_Instance_State_sem__O                          
1001c075  ti_sysbios_gates_GateMutex_Instance_finalize__E                           
1001bea1  ti_sysbios_gates_GateMutex_Instance_init__E                               
00000240  ti_sysbios_gates_GateMutex_Module__FXNS__C                                
0000050a  ti_sysbios_gates_GateMutex_Module__id__C                                  
20002dd4  ti_sysbios_gates_GateMutex_Module__root__V                                
00000310  ti_sysbios_gates_GateMutex_Object__DESC__C                                
00000448  ti_sysbios_gates_GateMutex_Object__PARAMS__C                              
1001b649  ti_sysbios_gates_GateMutex_Object__create__S                              
1001bab9  ti_sysbios_gates_GateMutex_Object__delete__S                              
1001bc49  ti_sysbios_gates_GateMutex_Object__destruct__S                            
20002b64  ti_sysbios_gates_GateMutex_Object__table__V                               
1001c179  ti_sysbios_gates_GateMutex_Params__init__S                                
1001b7ed  ti_sysbios_gates_GateMutex_construct                                      
1001b679  ti_sysbios_gates_GateMutex_create                                         
1001c26d  ti_sysbios_gates_GateMutex_delete                                         
1001c271  ti_sysbios_gates_GateMutex_destruct                                       
1001b6a9  ti_sysbios_gates_GateMutex_enter__E                                       
1001bf9d  ti_sysbios_gates_GateMutex_leave__E                                       
1001c275  ti_sysbios_gates_GateMutex_query__E                                       
1001c279  ti_sysbios_hal_Hwi_HwiProxy_Module__startupDone__S                        
UNDEFED   ti_sysbios_hal_Hwi_HwiProxy_Module__startupDone__S__mangled__             
1001c085  ti_sysbios_hal_Hwi_HwiProxy_Object__create__S                             
1001bba9  ti_sysbios_hal_Hwi_HwiProxy_Object__delete__S                             
UNDEFED   ti_sysbios_hal_Hwi_HwiProxy_Object__delete__S__mangled__                  
1001c13d  ti_sysbios_hal_Hwi_HwiProxy_Params__init__S                               
UNDEFED   ti_sysbios_hal_Hwi_HwiProxy_Params__init__S__mangled__                    
1001be49  ti_sysbios_hal_Hwi_HwiProxy_create                                        
1001c27d  ti_sysbios_hal_Hwi_HwiProxy_delete                                        
1001c281  ti_sysbios_hal_Hwi_HwiProxy_disableInterrupt__E                           
UNDEFED   ti_sysbios_hal_Hwi_HwiProxy_disableInterrupt__E__mangled__                
1001c285  ti_sysbios_hal_Hwi_HwiProxy_enableInterrupt__E                            
UNDEFED   ti_sysbios_hal_Hwi_HwiProxy_enableInterrupt__E__mangled__                 
1001c289  ti_sysbios_hal_Hwi_HwiProxy_getStackInfo__E                               
UNDEFED   ti_sysbios_hal_Hwi_HwiProxy_getStackInfo__E__mangled__                    
00008a49  ti_sysbios_hal_Hwi_HwiProxy_post__E                                       
1001c28d  ti_sysbios_hal_Hwi_HwiProxy_startup__E                                    
UNDEFED   ti_sysbios_hal_Hwi_HwiProxy_startup__E__mangled__                         
1001c291  ti_sysbios_hal_Hwi_HwiProxy_switchFromBootStack__E                        
UNDEFED   ti_sysbios_hal_Hwi_HwiProxy_switchFromBootStack__E__mangled__             
1001c1f1  ti_sysbios_hal_Hwi_Instance_finalize__E                                   
1001b9f9  ti_sysbios_hal_Hwi_Instance_init__E                                       
20002ddc  ti_sysbios_hal_Hwi_Module__root__V                                        
1001c021  ti_sysbios_hal_Hwi_Module_startup__E                                      
00000330  ti_sysbios_hal_Hwi_Object__DESC__C                                        
000001a0  ti_sysbios_hal_Hwi_Object__PARAMS__C                                      
1001bc69  ti_sysbios_hal_Hwi_Object__delete__S                                      
1001ab79  ti_sysbios_hal_Hwi_create                                                 
1001c295  ti_sysbios_hal_Hwi_delete                                                 
1001c281  ti_sysbios_hal_Hwi_disableInterrupt__E                                    
UNDEFED   ti_sysbios_hal_Hwi_disableInterrupt__E                                    
1001c285  ti_sysbios_hal_Hwi_enableInterrupt__E                                     
UNDEFED   ti_sysbios_hal_Hwi_enableInterrupt__E                                     
1001c289  ti_sysbios_hal_Hwi_getStackInfo__E                                        
UNDEFED   ti_sysbios_hal_Hwi_getStackInfo__E                                        
1001b819  ti_sysbios_hal_Hwi_initStack                                              
00008a49  ti_sysbios_hal_Hwi_post__E                                                
1001c28d  ti_sysbios_hal_Hwi_startup__E                                             
UNDEFED   ti_sysbios_hal_Hwi_startup__E                                             
1001c299  ti_sysbios_hal_Hwi_switchFromBootStack__E                                 
UNDEFED   ti_sysbios_hal_Hwi_switchFromBootStack__E                                 
000004b4  ti_sysbios_heaps_HeapMem_E_memory__C                                      
1001bc89  ti_sysbios_heaps_HeapMem_Handle__label__S                                 
200011a0  ti_sysbios_heaps_HeapMem_Instance_State_0_buf__A                          
1001b4d5  ti_sysbios_heaps_HeapMem_Instance_init__E                                 
1001bc29  ti_sysbios_heaps_HeapMem_Module_GateProxy_Handle__label__S                
UNDEFED   ti_sysbios_heaps_HeapMem_Module_GateProxy_Handle__label__S__mangled__     
1001bab9  ti_sysbios_heaps_HeapMem_Module_GateProxy_Object__delete__S               
UNDEFED   ti_sysbios_heaps_HeapMem_Module_GateProxy_Object__delete__S__mangled__    
1001c179  ti_sysbios_heaps_HeapMem_Module_GateProxy_Params__init__S                 
UNDEFED   ti_sysbios_heaps_HeapMem_Module_GateProxy_Params__init__S__mangled__      
1001c29d  ti_sysbios_heaps_HeapMem_Module_GateProxy_enter__E                        
1001c2a1  ti_sysbios_heaps_HeapMem_Module_GateProxy_leave__E                        
1001c275  ti_sysbios_heaps_HeapMem_Module_GateProxy_query__E                        
UNDEFED   ti_sysbios_heaps_HeapMem_Module_GateProxy_query__E__mangled__             
000001cc  ti_sysbios_heaps_HeapMem_Module__FXNS__C                                  
000004b8  ti_sysbios_heaps_HeapMem_Module__gateObj__C                               
0000050c  ti_sysbios_heaps_HeapMem_Module__id__C                                    
20002de4  ti_sysbios_heaps_HeapMem_Module__root__V                                  
00000350  ti_sysbios_heaps_HeapMem_Object__DESC__C                                  
00000264  ti_sysbios_heaps_HeapMem_Object__PARAMS__C                                
000004bc  ti_sysbios_heaps_HeapMem_Object__count__C                                 
1001b845  ti_sysbios_heaps_HeapMem_Object__create__S                                
1001bca9  ti_sysbios_heaps_HeapMem_Object__delete__S                                
1001b871  ti_sysbios_heaps_HeapMem_Object__get__S                                   
000004c0  ti_sysbios_heaps_HeapMem_Object__table__C                                 
20002d6c  ti_sysbios_heaps_HeapMem_Object__table__V                                 
1001a199  ti_sysbios_heaps_HeapMem_alloc__E                                         
1001a795  ti_sysbios_heaps_HeapMem_free__E                                          
1001b209  ti_sysbios_heaps_HeapMem_getStats__E                                      
1001b545  ti_sysbios_heaps_HeapMem_init__I                                          
1001c2a5  ti_sysbios_heaps_HeapMem_isBlocking__E                                    
000004c4  ti_sysbios_heaps_HeapMem_reqAlign__C                                      
1001c105  ti_sysbios_heaps_HeapMem_restore__E                                       
1001bfcd  ti_sysbios_knl_Clock_Instance_finalize__E                                 
1001b50d  ti_sysbios_knl_Clock_Instance_init__E                                     
000005d0  ti_sysbios_knl_Clock_Module_State_clockQ__O                               
20002dec  ti_sysbios_knl_Clock_Module__root__V                                      
20000178  ti_sysbios_knl_Clock_Module__state__V                                     
1001bcc9  ti_sysbios_knl_Clock_Module_startup__E                                    
00000370  ti_sysbios_knl_Clock_Object__DESC__C                                      
00000288  ti_sysbios_knl_Clock_Object__PARAMS__C                                    
1001badd  ti_sysbios_knl_Clock_Object__delete__S                                    
1001bce9  ti_sysbios_knl_Clock_Object__destruct__S                                  
20002c6c  ti_sysbios_knl_Clock_Object__table__V                                     
1001c185  ti_sysbios_knl_Clock_Params__init__S                                      
1001c2a9  ti_sysbios_knl_Clock_TimerProxy_Module__startupDone__S                    
UNDEFED   ti_sysbios_knl_Clock_TimerProxy_Module__startupDone__S__mangled__         
1001c095  ti_sysbios_knl_Clock_TimerProxy_getCurrentTick__E                         
1001c2ad  ti_sysbios_knl_Clock_TimerProxy_getExpiredTicks__E                        
1001c0a5  ti_sysbios_knl_Clock_TimerProxy_getMaxTicks__E                            
1001c2b1  ti_sysbios_knl_Clock_TimerProxy_getPeriod__E                              
1001c0b5  ti_sysbios_knl_Clock_TimerProxy_setNextTick__E                            
1001b795  ti_sysbios_knl_Clock_TimerProxy_startup__E                                
UNDEFED   ti_sysbios_knl_Clock_TimerProxy_startup__E__mangled__                     
1001ba21  ti_sysbios_knl_Clock_addI__E                                              
1001b579  ti_sysbios_knl_Clock_construct                                            
1001b3ed  ti_sysbios_knl_Clock_create                                               
1001c2b5  ti_sysbios_knl_Clock_delete                                               
1001c2b9  ti_sysbios_knl_Clock_destruct                                             
0000899d  ti_sysbios_knl_Clock_doTick__I                                            
00008069  ti_sysbios_knl_Clock_getTicksUntilInterrupt__E                            
1001b6d9  ti_sysbios_knl_Clock_getTicks__E                                          
1001c191  ti_sysbios_knl_Clock_getTimerHandle__E                                    
1001be67  ti_sysbios_knl_Clock_logTick__E                                           
1001c2bd  ti_sysbios_knl_Clock_removeI__E                                           
1001bebd  ti_sysbios_knl_Clock_scheduleNextTick__E                                  
000004c8  ti_sysbios_knl_Clock_serviceMargin__C                                     
1001c2c1  ti_sysbios_knl_Clock_setTimeout__E                                        
1001a719  ti_sysbios_knl_Clock_startI__E                                            
1001bfe3  ti_sysbios_knl_Clock_start__E                                             
00008455  ti_sysbios_knl_Clock_stop__E                                              
00000510  ti_sysbios_knl_Clock_tickMode__C                                          
0000b3d8  ti_sysbios_knl_Clock_tickPeriod__C                                        
0000b3dc  ti_sysbios_knl_Clock_triggerClock__C                                      
00008637  ti_sysbios_knl_Clock_triggerFunc__I                                       
1001a80d  ti_sysbios_knl_Clock_walkQueueDynamic__E                                  
0000552d  ti_sysbios_knl_Clock_workFuncDynamic__E                                   
1001a885  ti_sysbios_knl_Clock_workFunc__E                                          
0000b3e0  ti_sysbios_knl_Event_Instance_State_pendQ__O                              
000089b1  ti_sysbios_knl_Event_Instance_init__E                                     
20002df4  ti_sysbios_knl_Event_Module__root__V                                      
0000b2a8  ti_sysbios_knl_Event_Object__DESC__C                                      
0000b31c  ti_sysbios_knl_Event_Object__PARAMS__C                                    
00008b31  ti_sysbios_knl_Event_Params__init__S                                      
00008475  ti_sysbios_knl_Event_checkEvents__I                                       
00008095  ti_sysbios_knl_Event_construct                                            
000080c1  ti_sysbios_knl_Event_pendTimeout__I                                       
00004201  ti_sysbios_knl_Event_pend__E                                              
00006279  ti_sysbios_knl_Event_post__E                                              
0000b3e4  ti_sysbios_knl_Idle_funcList__A                                           
00000478  ti_sysbios_knl_Idle_funcList__C                                           
1001c20b  ti_sysbios_knl_Idle_loop__E                                               
1001bd09  ti_sysbios_knl_Idle_run__E                                                
000005d4  ti_sysbios_knl_Mailbox_Instance_State_dataQue__O                          
000005d8  ti_sysbios_knl_Mailbox_Instance_State_dataSem__O                          
000005dc  ti_sysbios_knl_Mailbox_Instance_State_freeQue__O                          
000005e0  ti_sysbios_knl_Mailbox_Instance_State_freeSem__O                          
1001a9dd  ti_sysbios_knl_Mailbox_Instance_finalize__E                               
1001a001  ti_sysbios_knl_Mailbox_Instance_init__E                                   
20002dfc  ti_sysbios_knl_Mailbox_Module__root__V                                    
1001b251  ti_sysbios_knl_Mailbox_Module_startup__E                                  
00000390  ti_sysbios_knl_Mailbox_Object__DESC__C                                    
0000013c  ti_sysbios_knl_Mailbox_Object__PARAMS__C                                  
000004cc  ti_sysbios_knl_Mailbox_Object__count__C                                   
1001bd29  ti_sysbios_knl_Mailbox_Object__delete__S                                  
1001bed9  ti_sysbios_knl_Mailbox_Object__destruct__S                                
1001b89d  ti_sysbios_knl_Mailbox_Object__get__S                                     
000004d0  ti_sysbios_knl_Mailbox_Object__table__C                                   
1001c19d  ti_sysbios_knl_Mailbox_Params__init__S                                    
1001af81  ti_sysbios_knl_Mailbox_construct                                          
1001abdd  ti_sysbios_knl_Mailbox_create                                             
1001c2c5  ti_sysbios_knl_Mailbox_delete                                             
1001c2c9  ti_sysbios_knl_Mailbox_destruct                                           
1001a8fd  ti_sysbios_knl_Mailbox_pend__E                                            
1001b8c9  ti_sysbios_knl_Mailbox_postInit__I                                        
1001a591  ti_sysbios_knl_Mailbox_post__E                                            
1001c22b  ti_sysbios_knl_Queue_Instance_init__E                                     
20002e04  ti_sysbios_knl_Queue_Module__root__V                                      
000003b0  ti_sysbios_knl_Queue_Object__DESC__C                                      
00000460  ti_sysbios_knl_Queue_Object__PARAMS__C                                    
000004d4  ti_sysbios_knl_Queue_Object__count__C                                     
1001bd49  ti_sysbios_knl_Queue_Object__delete__S                                    
1001bef5  ti_sysbios_knl_Queue_Object__destruct__S                                  
1001bd69  ti_sysbios_knl_Queue_Object__get__S                                       
000004d8  ti_sysbios_knl_Queue_Object__table__C                                     
1001b8f5  ti_sysbios_knl_Queue_construct                                            
1001b921  ti_sysbios_knl_Queue_create                                               
1001c2cd  ti_sysbios_knl_Queue_delete                                               
1001c1a9  ti_sysbios_knl_Queue_dequeue__E                                           
1001c2d1  ti_sysbios_knl_Queue_destruct                                             
1001c231  ti_sysbios_knl_Queue_elemClear__E                                         
1001c113  ti_sysbios_knl_Queue_empty__E                                             
1001c1b5  ti_sysbios_knl_Queue_enqueue__E                                           
1001bf11  ti_sysbios_knl_Queue_get__E                                               
1001c2d5  ti_sysbios_knl_Queue_head__E                                              
1001c2d9  ti_sysbios_knl_Queue_next__E                                              
1001bf2d  ti_sysbios_knl_Queue_put__E                                               
1001c121  ti_sysbios_knl_Queue_remove__E                                            
000005e4  ti_sysbios_knl_Semaphore_Instance_State_pendQ__O                          
1001c0c5  ti_sysbios_knl_Semaphore_Instance_finalize__E                             
1001bb01  ti_sysbios_knl_Semaphore_Instance_init__E                                 
20002e0c  ti_sysbios_knl_Semaphore_Module__root__V                                  
000003d0  ti_sysbios_knl_Semaphore_Object__DESC__C                                  
000002ac  ti_sysbios_knl_Semaphore_Object__PARAMS__C                                
1001bb25  ti_sysbios_knl_Semaphore_Object__delete__S                                
1001bd89  ti_sysbios_knl_Semaphore_Object__destruct__S                              
1001c1c1  ti_sysbios_knl_Semaphore_Params__init__S                                  
1001b709  ti_sysbios_knl_Semaphore_construct                                        
1001b5ad  ti_sysbios_knl_Semaphore_create                                           
1001c2dd  ti_sysbios_knl_Semaphore_delete                                           
1001c2e1  ti_sysbios_knl_Semaphore_destruct                                         
1001b94d  ti_sysbios_knl_Semaphore_pendTimeout__I                                   
1001a0cd  ti_sysbios_knl_Semaphore_pend__E                                          
1001ac41  ti_sysbios_knl_Semaphore_post__E                                          
1001bf9b  ti_sysbios_knl_Swi_Instance_finalize__E                                   
1001aca5  ti_sysbios_knl_Swi_Instance_init__E                                       
20002bcc  ti_sysbios_knl_Swi_Module_State_0_readyQ__A                               
20002e14  ti_sysbios_knl_Swi_Module__root__V                                        
200001c8  ti_sysbios_knl_Swi_Module__state__V                                       
1001c237  ti_sysbios_knl_Swi_Module_startup__E                                      
000003f0  ti_sysbios_knl_Swi_Object__DESC__C                                        
000001f4  ti_sysbios_knl_Swi_Object__PARAMS__C                                      
000004dc  ti_sysbios_knl_Swi_Object__count__C                                       
1001bda9  ti_sysbios_knl_Swi_Object__delete__S                                      
1001bf49  ti_sysbios_knl_Swi_Object__destruct__S                                    
1001b979  ti_sysbios_knl_Swi_Object__get__S                                         
000004e0  ti_sysbios_knl_Swi_Object__table__C                                       
20002bfc  ti_sysbios_knl_Swi_Object__table__V                                       
1001c1cd  ti_sysbios_knl_Swi_Params__init__S                                        
1001b085  ti_sysbios_knl_Swi_construct                                              
1001ad05  ti_sysbios_knl_Swi_create                                                 
1001c2e5  ti_sysbios_knl_Swi_delete                                                 
1001c2e9  ti_sysbios_knl_Swi_destruct                                               
1001c0d5  ti_sysbios_knl_Swi_disable__E                                             
1001c0e5  ti_sysbios_knl_Swi_enabled__E                                             
00008b55  ti_sysbios_knl_Swi_getTrigger__E                                          
000004e4  ti_sysbios_knl_Swi_numPriorities__C                                       
00008831  ti_sysbios_knl_Swi_or__E                                                  
1001c2ed  ti_sysbios_knl_Swi_postInit__I                                            
1001b321  ti_sysbios_knl_Swi_post__E                                                
1001ad61  ti_sysbios_knl_Swi_restoreHwi__E                                          
1001b5e1  ti_sysbios_knl_Swi_restore__E                                             
1001b0d5  ti_sysbios_knl_Swi_runLoop__I                                             
1001afd9  ti_sysbios_knl_Swi_run__I                                                 
1001b031  ti_sysbios_knl_Swi_schedule__I                                            
1001c23d  ti_sysbios_knl_Swi_startup__E                                             
200018a0  ti_sysbios_knl_Task_Instance_State_0_stack__A                             
1001a4fd  ti_sysbios_knl_Task_Instance_finalize__E                                  
1001a25d  ti_sysbios_knl_Task_Instance_init__E                                      
20002e40  ti_sysbios_knl_Task_Module_State_0_idleTask__A                            
20002c8c  ti_sysbios_knl_Task_Module_State_0_readyQ__A                              
000005e8  ti_sysbios_knl_Task_Module_State_inactiveQ__O                             
20002e1c  ti_sysbios_knl_Task_Module__root__V                                       
20000100  ti_sysbios_knl_Task_Module__state__V                                      
1001adbd  ti_sysbios_knl_Task_Module_startup__E                                     
00000410  ti_sysbios_knl_Task_Object__DESC__C                                       
00000100  ti_sysbios_knl_Task_Object__PARAMS__C                                     
000004e8  ti_sysbios_knl_Task_Object__count__C                                      
1001bdc9  ti_sysbios_knl_Task_Object__delete__S                                     
1001bf65  ti_sysbios_knl_Task_Object__destruct__S                                   
1001bde9  ti_sysbios_knl_Task_Object__get__S                                        
000004ec  ti_sysbios_knl_Task_Object__table__C                                      
20002a90  ti_sysbios_knl_Task_Object__table__V                                      
1001c1d9  ti_sysbios_knl_Task_Params__init__S                                       
1001c2f1  ti_sysbios_knl_Task_SupportProxy_Module__startupDone__S                   
UNDEFED   ti_sysbios_knl_Task_SupportProxy_Module__startupDone__S__mangled__        
1001c2f5  ti_sysbios_knl_Task_SupportProxy_getStackAlignment__E                     
UNDEFED   ti_sysbios_knl_Task_SupportProxy_getStackAlignment__E__mangled__          
1001c2f9  ti_sysbios_knl_Task_SupportProxy_start__E                                 
UNDEFED   ti_sysbios_knl_Task_SupportProxy_start__E__mangled__                      
1001c2fd  ti_sysbios_knl_Task_SupportProxy_swap__E                                  
UNDEFED   ti_sysbios_knl_Task_SupportProxy_swap__E__mangled__                       
000004f0  ti_sysbios_knl_Task_allBlockedFunc__C                                     
1001b365  ti_sysbios_knl_Task_allBlockedFunction__I                                 
1001b615  ti_sysbios_knl_Task_blockI__E                                             
1001b125  ti_sysbios_knl_Task_construct                                             
1001ae19  ti_sysbios_knl_Task_create                                                
000004f4  ti_sysbios_knl_Task_defaultStackHeap__C                                   
000004f8  ti_sysbios_knl_Task_defaultStackSize__C                                   
1001c301  ti_sysbios_knl_Task_delete                                                
1001c305  ti_sysbios_knl_Task_destruct                                              
1001c0f5  ti_sysbios_knl_Task_disable__E                                            
1001c243  ti_sysbios_knl_Task_enable__E                                             
1001be09  ti_sysbios_knl_Task_enter__I                                              
1001b429  ti_sysbios_knl_Task_exit__E                                               
0000050e  ti_sysbios_knl_Task_initStackFlag__C                                      
000004fc  ti_sysbios_knl_Task_numConstructedTasks__C                                
1001a615  ti_sysbios_knl_Task_postInit__I                                           
1001b739  ti_sysbios_knl_Task_processVitalTaskFlag__I                               
1001be29  ti_sysbios_knl_Task_restoreHwi__E                                         
1001ba49  ti_sysbios_knl_Task_restore__E                                            
1001b175  ti_sysbios_knl_Task_schedule__I                                           
1001c1e5  ti_sysbios_knl_Task_self__E                                               
1001bf81  ti_sysbios_knl_Task_sleepTimeout__I                                       
1001a96d  ti_sysbios_knl_Task_sleep__E                                              
1001ae75  ti_sysbios_knl_Task_startCore__E                                          
1001c309  ti_sysbios_knl_Task_startup__E                                            
1001ca71  ti_sysbios_knl_Task_swapReturn                                            
1001b9a5  ti_sysbios_knl_Task_unblockI__E                                           
1001bfb5  ti_sysbios_knl_Task_unblock__E                                            
1001b3a9  ti_sysbios_knl_Task_yield__E                                              
00000590  ti_sysbios_rom_ROM_AONRTCChannelEnable                                    
00000594  ti_sysbios_rom_ROM_AONRTCCompareValueSet                                  
00000598  ti_sysbios_rom_ROM_AONRTCCurrentCompareValueGet                           
0000059c  ti_sysbios_rom_ROM_AONRTCEventClear                                       
000005a0  ti_sysbios_rom_ROM_ti_sysbios_family_arm_cc26xx_Timer_getCount64__E       
000005a4  ti_sysbios_rom_ROM_ti_sysbios_family_arm_cc26xx_Timer_getCurrentTick__E   
000005a8  ti_sysbios_rom_ROM_ti_sysbios_family_arm_cc26xx_Timer_getMaxTicks__E      
000005ac  ti_sysbios_rom_ROM_ti_sysbios_family_arm_cc26xx_Timer_initDevice__I       
000005b0  ti_sysbios_rom_ROM_ti_sysbios_family_arm_cc26xx_Timer_setNextTick__E      
000005b4  ti_sysbios_rom_ROM_ti_sysbios_family_arm_cc26xx_Timer_setThreshold__I     
000005b8  ti_sysbios_rom_ROM_ti_sysbios_family_arm_cc26xx_Timer_start__E            
000005bc  ti_sysbios_rom_ROM_ti_sysbios_family_arm_cc26xx_TimestampProvider_get32__E
000005c0  ti_sysbios_rom_ROM_xdc_runtime_Startup_getState__I                        
000005c4  ti_sysbios_rom_ROM_xdc_runtime_System_SupportProxy_abort__E               
000005c8  ti_sysbios_rom_ROM_xdc_runtime_System_SupportProxy_exit__E                
000088fb  ti_sysbios_rom_cortexm_cc26xx_CC26xx_badRomRevision__E                    
00008849  ti_sysbios_rom_cortexm_cc26xx_CC26xx_checkRevision__E                     
1001ca9b  ti_sysbios_rom_cortexm_cc26xx_CC26xx_getRevision__E                       
0000b2c8  uartCC26XXHWAttrs                                                         
20001c58  uartCC26XXObjects                                                         
2000266c  uartCC26XXRingBuffer                                                      
0000b3c4  udmaHWAttrs                                                               
2000268c  udmaObjects                                                               
00000524  xdc_runtime_Assert_E_assertFailed__C                                      
1001c5a9  xdc_runtime_Assert_raise__I                                               
1001c6ed  xdc_runtime_Core_assignLabel__I                                           
1001c5f1  xdc_runtime_Core_assignParams__I                                          
1001c639  xdc_runtime_Core_constructObject__I                                       
1001c405  xdc_runtime_Core_createObject__I                                          
1001c4f9  xdc_runtime_Core_deleteObject__I                                          
1001c7a1  xdc_runtime_Core_destructObject__I                                        
00000528  xdc_runtime_Error_E_memory__C                                             
1001c7b9  xdc_runtime_Error_check__E                                                
1001c841  xdc_runtime_Error_init__E                                                 
0000052c  xdc_runtime_Error_policyFxn__C                                            
1001c487  xdc_runtime_Error_policySpin__E                                           
0000058c  xdc_runtime_Error_policy__C                                               
1001c769  xdc_runtime_Error_raiseX__E                                               
1001c885  xdc_runtime_Gate_enterSystem__E                                           
1001c879  xdc_runtime_Gate_leaveSystem__E                                           
00000530  xdc_runtime_IGateProvider_Interface__BASE__C                              
00000534  xdc_runtime_IHeap_Interface__BASE__C                                      
00000538  xdc_runtime_IModule_Interface__BASE__C                                    
UNDEFED   xdc_runtime_Main_Module_GateProxy_Handle__label__S                        
UNDEFED   xdc_runtime_Main_Module_GateProxy_Object__delete__S                       
UNDEFED   xdc_runtime_Main_Module_GateProxy_query__E                                
0000053c  xdc_runtime_Main_Module__diagsEnabled__C                                  
00000540  xdc_runtime_Main_Module__diagsIncluded__C                                 
00000544  xdc_runtime_Main_Module__diagsMask__C                                     
00000584  xdc_runtime_Main_Module__id__C                                            
1001bc89  xdc_runtime_Memory_HeapProxy_Handle__label__S                             
UNDEFED   xdc_runtime_Memory_HeapProxy_Handle__label__S__mangled__                  
1001bca9  xdc_runtime_Memory_HeapProxy_Object__delete__S                            
UNDEFED   xdc_runtime_Memory_HeapProxy_Object__delete__S__mangled__                 
1001c889  xdc_runtime_Memory_HeapProxy_alloc__E                                     
1001c88d  xdc_runtime_Memory_HeapProxy_free__E                                      
00000586  xdc_runtime_Memory_Module__id__C                                          
20000200  xdc_runtime_Memory_Module__state__V                                       
1001c489  xdc_runtime_Memory_alloc__E                                               
1001c84d  xdc_runtime_Memory_calloc__E                                              
00000548  xdc_runtime_Memory_defaultHeapInstance__C                                 
1001c801  xdc_runtime_Memory_free__E                                                
1001c859  xdc_runtime_Memory_getMaxDefaultTypeAlign__E                              
1001c785  xdc_runtime_Memory_valloc__E                                              
20002e24  xdc_runtime_Registry_Module__state__V                                     
00008495  xdc_runtime_Registry_findById__E                                          
200001f0  xdc_runtime_Startup_Module__state__V                                      
00000001  xdc_runtime_Startup__EXECFXN__C                                           
00000001  xdc_runtime_Startup__RESETFXN__C                                          
0000054c  xdc_runtime_Startup_execImpl__C                                           
1001c559  xdc_runtime_Startup_exec__E                                               
000089d7  xdc_runtime_Startup_exec__I                                               
0000b3b0  xdc_runtime_Startup_firstFxns__A                                          
00000514  xdc_runtime_Startup_firstFxns__C                                          
00006b29  xdc_runtime_Startup_getState__I                                           
0000051c  xdc_runtime_Startup_lastFxns__C                                           
00000550  xdc_runtime_Startup_maxPasses__C                                          
00008b61  xdc_runtime_Startup_reset__I                                              
00008b6d  xdc_runtime_Startup_rtsDone__E                                            
0000b35c  xdc_runtime_Startup_sfxnRts__A                                            
00000554  xdc_runtime_Startup_sfxnRts__C                                            
0000b244  xdc_runtime_Startup_sfxnTab__A                                            
00000558  xdc_runtime_Startup_sfxnTab__C                                            
0000055c  xdc_runtime_Startup_startModsFxn__C                                       
1001c30d  xdc_runtime_Startup_startMods__I                                          
00000560  xdc_runtime_SysCallback_abortFxn__C                                       
1001c811  xdc_runtime_SysCallback_abort__E                                          
00008c4b  xdc_runtime_SysCallback_defaultAbort                                      
00008c4d  xdc_runtime_SysCallback_defaultExit                                       
00008c4f  xdc_runtime_SysCallback_defaultPutch                                      
00008c43  xdc_runtime_SysCallback_defaultReady                                      
00000564  xdc_runtime_SysCallback_exitFxn__C                                        
1001c821  xdc_runtime_SysCallback_exit__E                                           
0000b3e8  xdc_runtime_SysCallback_putchFxn__C                                       
00008a69  xdc_runtime_SysCallback_putch__E                                          
0000b3ec  xdc_runtime_SysCallback_readyFxn__C                                       
00008a79  xdc_runtime_SysCallback_ready__E                                          
1001bbe9  xdc_runtime_System_Module_GateProxy_Handle__label__S                      
UNDEFED   xdc_runtime_System_Module_GateProxy_Handle__label__S__mangled__           
1001bc09  xdc_runtime_System_Module_GateProxy_Object__delete__S                     
UNDEFED   xdc_runtime_System_Module_GateProxy_Object__delete__S__mangled__          
1001c891  xdc_runtime_System_Module_GateProxy_enter__E                              
1001c895  xdc_runtime_System_Module_GateProxy_leave__E                              
1001c269  xdc_runtime_System_Module_GateProxy_query__E                              
UNDEFED   xdc_runtime_System_Module_GateProxy_query__E__mangled__                   
200001f8  xdc_runtime_System_Module__state__V                                       
1001c87f  xdc_runtime_System_Module_startup__E                                      
UNDEFED   xdc_runtime_System_SupportProxy_abort__E                                  
UNDEFED   xdc_runtime_System_SupportProxy_exit__E                                   
00008a69  xdc_runtime_System_SupportProxy_putch__E                                  
00008a79  xdc_runtime_System_SupportProxy_ready__E                                  
00000568  xdc_runtime_System_abortFxn__C                                            
1001c899  xdc_runtime_System_abortSpin__E                                           
1001c749  xdc_runtime_System_abort__E                                               
1001c681  xdc_runtime_System_atexit__E                                              
00000e1d  xdc_runtime_System_doPrint__I                                             
0000056c  xdc_runtime_System_exitFxn__C                                             
1001c89b  xdc_runtime_System_exitSpin__E                                            
1001c7d1  xdc_runtime_System_exit__E                                                
0000b3f0  xdc_runtime_System_extendFxn__C                                           
000062e9  xdc_runtime_System_formatNum__I                                           
00000570  xdc_runtime_System_maxAtexitHandlers__C                                   
00003f25  xdc_runtime_System_printfExtend__I                                        
1001c6b9  xdc_runtime_System_processAtExit__E                                       
000080ed  xdc_runtime_System_putchar__I                                             
00008605  xdc_runtime_System_snprintf__E                                            
00008c47  xdc_runtime_System_snprintf_va__F                                         
00008a89  xdc_runtime_System_vsnprintf__E                                           
00000588  xdc_runtime_Text_charCnt__C                                               
0000b3f8  xdc_runtime_Text_charTab__A                                               
00000574  xdc_runtime_Text_charTab__C                                               
1001c71d  xdc_runtime_Text_cordText__E                                              
0000058a  xdc_runtime_Text_isLoaded__C                                              
00000578  xdc_runtime_Text_nameEmpty__C                                             
0000057c  xdc_runtime_Text_nameStatic__C                                            
00000580  xdc_runtime_Text_nameUnknown__C                                           
00007f01  xdc_runtime_Text_printVisFxn__I                                           
00006b85  xdc_runtime_Text_putLab__E                                                
000056ed  xdc_runtime_Text_putMod__E                                                
000053f1  xdc_runtime_Text_putSite__E                                               
0000b37e  xdc_runtime_Text_registryModsLastId__C                                    
1001c7e9  xdc_runtime_Text_ropeText__E                                              
0000b3d6  xdc_runtime_Text_unnamedModsLastId__C                                     
0000b3f4  xdc_runtime_Text_visitRopeFxn__C                                          
00008bf9  xdc_runtime_Text_visitRope__I                                             
000076cd  xdc_runtime_Text_xprintf__I                                               
1001c831  xdc_runtime_Timestamp_SupportProxy_get32__E                               
00008ac3  xdc_runtime_Timestamp_SupportProxy_get32__E__mangled__                    
1001b9d1  xdc_runtime_Timestamp_SupportProxy_get64__E                               
UNDEFED   xdc_runtime_Timestamp_SupportProxy_get64__E__mangled__                    
1001c12f  xdc_runtime_Timestamp_SupportProxy_getFreq__E                             
UNDEFED   xdc_runtime_Timestamp_SupportProxy_getFreq__E__mangled__                  
1001c831  xdc_runtime_Timestamp_get32__E                                            
UNDEFED   xdc_runtime_Timestamp_get32__E                                            
1001b9d1  xdc_runtime_Timestamp_get64__E                                            
UNDEFED   xdc_runtime_Timestamp_get64__E                                            
1001c12f  xdc_runtime_Timestamp_getFreq__E                                          
UNDEFED   xdc_runtime_Timestamp_getFreq__E                                          


GLOBAL SYMBOLS: SORTED BY Symbol Address 

address   name                                                                      
-------   ----                                                                      
00000000  __ASM__                                                                   
00000000  ti_sysbios_family_arm_m3_Hwi_resetVectors                                 
00000001  xdc_runtime_Startup__EXECFXN__C                                           
00000001  xdc_runtime_Startup__RESETFXN__C                                          
0000006d  __ISA__                                                                   
0000007f  __PLAT__                                                                  
000000a6  __TARG__                                                                  
000000cb  __TRDR__                                                                  
00000100  ti_sysbios_knl_Task_Object__PARAMS__C                                     
0000013c  ti_sysbios_knl_Mailbox_Object__PARAMS__C                                  
00000170  ti_sysbios_family_arm_m3_Hwi_Object__PARAMS__C                            
000001a0  ti_sysbios_hal_Hwi_Object__PARAMS__C                                      
000001cc  ti_sysbios_heaps_HeapMem_Module__FXNS__C                                  
000001f4  ti_sysbios_knl_Swi_Object__PARAMS__C                                      
0000021c  ti_sysbios_gates_GateHwi_Module__FXNS__C                                  
00000240  ti_sysbios_gates_GateMutex_Module__FXNS__C                                
00000264  ti_sysbios_heaps_HeapMem_Object__PARAMS__C                                
00000288  ti_sysbios_knl_Clock_Object__PARAMS__C                                    
000002ac  ti_sysbios_knl_Semaphore_Object__PARAMS__C                                
000002d0  ti_sysbios_family_arm_m3_Hwi_Object__DESC__C                              
000002f0  ti_sysbios_gates_GateHwi_Object__DESC__C                                  
00000300  __STACK_SIZE                                                              
00000310  ti_sysbios_gates_GateMutex_Object__DESC__C                                
00000330  ti_sysbios_hal_Hwi_Object__DESC__C                                        
00000350  ti_sysbios_heaps_HeapMem_Object__DESC__C                                  
00000370  ti_sysbios_knl_Clock_Object__DESC__C                                      
00000390  ti_sysbios_knl_Mailbox_Object__DESC__C                                    
000003b0  ti_sysbios_knl_Queue_Object__DESC__C                                      
000003d0  ti_sysbios_knl_Semaphore_Object__DESC__C                                  
000003f0  ti_sysbios_knl_Swi_Object__DESC__C                                        
00000410  ti_sysbios_knl_Task_Object__DESC__C                                       
00000430  ti_sysbios_gates_GateHwi_Object__PARAMS__C                                
00000448  ti_sysbios_gates_GateMutex_Object__PARAMS__C                              
00000460  ti_sysbios_knl_Queue_Object__PARAMS__C                                    
00000478  ti_sysbios_knl_Idle_funcList__C                                           
00000484  ti_sysbios_family_arm_cc26xx_Timer_startupNeeded__C                       
00000488  ti_sysbios_family_arm_m3_Hwi_E_alreadyDefined__C                          
0000048c  ti_sysbios_family_arm_m3_Hwi_E_hwiLimitExceeded__C                        
00000490  ti_sysbios_family_arm_m3_Hwi_NUM_INTERRUPTS__C                            
00000494  ti_sysbios_family_arm_m3_Hwi_Object__count__C                             
00000498  ti_sysbios_family_arm_m3_Hwi_Object__table__C                             
0000049c  ti_sysbios_family_arm_m3_Hwi_ccr__C                                       
000004a0  ti_sysbios_family_arm_m3_Hwi_excHandlerFunc__C                            
000004a4  ti_sysbios_family_arm_m3_Hwi_nullIsrFunc__C                               
000004a8  ti_sysbios_family_arm_m3_Hwi_numSparseInterrupts__C                       
000004ac  ti_sysbios_family_arm_m3_Hwi_priGroup__C                                  
000004b0  ti_sysbios_family_arm_m3_TaskSupport_stackAlignment__C                    
000004b4  ti_sysbios_heaps_HeapMem_E_memory__C                                      
000004b8  ti_sysbios_heaps_HeapMem_Module__gateObj__C                               
000004bc  ti_sysbios_heaps_HeapMem_Object__count__C                                 
000004c0  ti_sysbios_heaps_HeapMem_Object__table__C                                 
000004c4  ti_sysbios_heaps_HeapMem_reqAlign__C                                      
000004c8  ti_sysbios_knl_Clock_serviceMargin__C                                     
000004cc  ti_sysbios_knl_Mailbox_Object__count__C                                   
000004d0  ti_sysbios_knl_Mailbox_Object__table__C                                   
000004d4  ti_sysbios_knl_Queue_Object__count__C                                     
000004d8  ti_sysbios_knl_Queue_Object__table__C                                     
000004dc  ti_sysbios_knl_Swi_Object__count__C                                       
000004e0  ti_sysbios_knl_Swi_Object__table__C                                       
000004e4  ti_sysbios_knl_Swi_numPriorities__C                                       
000004e8  ti_sysbios_knl_Task_Object__count__C                                      
000004ec  ti_sysbios_knl_Task_Object__table__C                                      
000004f0  ti_sysbios_knl_Task_allBlockedFunc__C                                     
000004f4  ti_sysbios_knl_Task_defaultStackHeap__C                                   
000004f8  ti_sysbios_knl_Task_defaultStackSize__C                                   
000004fc  ti_sysbios_knl_Task_numConstructedTasks__C                                
00000502  ti_sysbios_family_arm_cc26xx_Timer_Module__id__C                          
00000504  ti_sysbios_family_arm_cc26xx_TimestampProvider_useClockTimer__C           
00000506  ti_sysbios_family_arm_m3_Hwi_Module__id__C                                
00000508  ti_sysbios_gates_GateHwi_Module__id__C                                    
0000050a  ti_sysbios_gates_GateMutex_Module__id__C                                  
0000050c  ti_sysbios_heaps_HeapMem_Module__id__C                                    
0000050e  ti_sysbios_knl_Task_initStackFlag__C                                      
00000510  ti_sysbios_knl_Clock_tickMode__C                                          
00000514  xdc_runtime_Startup_firstFxns__C                                          
0000051c  xdc_runtime_Startup_lastFxns__C                                           
00000524  xdc_runtime_Assert_E_assertFailed__C                                      
00000528  xdc_runtime_Error_E_memory__C                                             
0000052c  xdc_runtime_Error_policyFxn__C                                            
00000530  xdc_runtime_IGateProvider_Interface__BASE__C                              
00000534  xdc_runtime_IHeap_Interface__BASE__C                                      
00000538  xdc_runtime_IModule_Interface__BASE__C                                    
0000053c  xdc_runtime_Main_Module__diagsEnabled__C                                  
00000540  xdc_runtime_Main_Module__diagsIncluded__C                                 
00000544  xdc_runtime_Main_Module__diagsMask__C                                     
00000548  xdc_runtime_Memory_defaultHeapInstance__C                                 
0000054c  xdc_runtime_Startup_execImpl__C                                           
00000550  xdc_runtime_Startup_maxPasses__C                                          
00000554  xdc_runtime_Startup_sfxnRts__C                                            
00000558  xdc_runtime_Startup_sfxnTab__C                                            
0000055c  xdc_runtime_Startup_startModsFxn__C                                       
00000560  xdc_runtime_SysCallback_abortFxn__C                                       
00000564  xdc_runtime_SysCallback_exitFxn__C                                        
00000568  xdc_runtime_System_abortFxn__C                                            
0000056c  xdc_runtime_System_exitFxn__C                                             
00000570  xdc_runtime_System_maxAtexitHandlers__C                                   
00000574  xdc_runtime_Text_charTab__C                                               
00000578  xdc_runtime_Text_nameEmpty__C                                             
0000057c  xdc_runtime_Text_nameStatic__C                                            
00000580  xdc_runtime_Text_nameUnknown__C                                           
00000584  xdc_runtime_Main_Module__id__C                                            
00000586  xdc_runtime_Memory_Module__id__C                                          
00000588  xdc_runtime_Text_charCnt__C                                               
0000058a  xdc_runtime_Text_isLoaded__C                                              
0000058c  xdc_runtime_Error_policy__C                                               
00000590  ti_sysbios_rom_ROM_AONRTCChannelEnable                                    
00000594  ti_sysbios_rom_ROM_AONRTCCompareValueSet                                  
00000598  ti_sysbios_rom_ROM_AONRTCCurrentCompareValueGet                           
0000059c  ti_sysbios_rom_ROM_AONRTCEventClear                                       
000005a0  ti_sysbios_rom_ROM_ti_sysbios_family_arm_cc26xx_Timer_getCount64__E       
000005a4  ti_sysbios_rom_ROM_ti_sysbios_family_arm_cc26xx_Timer_getCurrentTick__E   
000005a8  ti_sysbios_rom_ROM_ti_sysbios_family_arm_cc26xx_Timer_getMaxTicks__E      
000005ac  ti_sysbios_rom_ROM_ti_sysbios_family_arm_cc26xx_Timer_initDevice__I       
000005b0  ti_sysbios_rom_ROM_ti_sysbios_family_arm_cc26xx_Timer_setNextTick__E      
000005b4  ti_sysbios_rom_ROM_ti_sysbios_family_arm_cc26xx_Timer_setThreshold__I     
000005b8  ti_sysbios_rom_ROM_ti_sysbios_family_arm_cc26xx_Timer_start__E            
000005bc  ti_sysbios_rom_ROM_ti_sysbios_family_arm_cc26xx_TimestampProvider_get32__E
000005c0  ti_sysbios_rom_ROM_xdc_runtime_Startup_getState__I                        
000005c4  ti_sysbios_rom_ROM_xdc_runtime_System_SupportProxy_abort__E               
000005c8  ti_sysbios_rom_ROM_xdc_runtime_System_SupportProxy_exit__E                
000005cc  ti_sysbios_gates_GateMutex_Instance_State_sem__O                          
000005d0  ti_sysbios_knl_Clock_Module_State_clockQ__O                               
000005d4  ti_sysbios_knl_Mailbox_Instance_State_dataQue__O                          
000005d8  ti_sysbios_knl_Mailbox_Instance_State_dataSem__O                          
000005dc  ti_sysbios_knl_Mailbox_Instance_State_freeQue__O                          
000005e0  ti_sysbios_knl_Mailbox_Instance_State_freeSem__O                          
000005e4  ti_sysbios_knl_Semaphore_Instance_State_pendQ__O                          
000005e8  ti_sysbios_knl_Task_Module_State_inactiveQ__O                             
000005ed  GPS                                                                       
00000e1d  xdc_runtime_System_doPrint__I                                             
00001159  EasyLink_init                                                             
0000147d  GrStringDraw                                                              
00001765  Power_sleep                                                               
0000198d  NOROM_SysCtrlSetRechargeBeforePowerDown                                   
00001b91  __aeabi_uldivmod                                                          
00001d85  RF_postCmd                                                                
00002131  PIN_init                                                                  
000022f5  UARTCC26XX_open                                                           
0000261d  PowerCC26XX_doCalibrate                                                   
000027a1  EasyLink_receiveAsync                                                     
00002e79  SPICC26XXDMA_open                                                         
00002fc1  DisplaySharp_open                                                         
00003101  EasyLink_transmit                                                         
0000323d  NOROM_SetupAfterColdResetWakeupFromShutDownCfg3                           
00003495  Power_init                                                                
000035b1  UARTCC26XX_read                                                           
00003a0d  UARTCC26XX_hwiIntFxn                                                      
00003b1d  RF_close                                                                  
00003e29  UARTCC26XX_write                                                          
00003f25  xdc_runtime_System_printfExtend__I                                        
00004111  SPICC26XXDMA_transferCancel                                               
00004201  ti_sysbios_knl_Event_pend__E                                              
000043cf  DisplayUart_clear                                                         
000043d1  NOROM_SetupAfterColdResetWakeupFromShutDownCfg2                           
000044b5  DisplaySharp_put5                                                         
00004675  EasyLink_enableRxAddrFilter                                               
0000474d  PowerCC26XX_standbyPolicy                                                 
00004821  Power_releaseDependency                                                   
000048f5  SPICC26XXDMA_control                                                      
000049c9  DisplaySharp_control                                                      
00004a99  Power_setDependency                                                       
00004b69  RF_open                                                                   
00004dc1  CoordinatorRFTask_init                                                    
000050a9  SPICC26XXDMA_transfer                                                     
00005203  DisplayUart_clearLines                                                    
00005205  NOROM_SetupTrimDevice                                                     
00005205  ti_sysbios_family_arm_cc26xx_Boot_trimDevice                              
0000534f  NOROM_RFCAdi3VcoLdoVoltageMode                                            
00005351  __TI_auto_init                                                            
000053f1  xdc_runtime_Text_putSite__E                                               
0000548f  __aeabi_memcpy                                                            
0000548f  __aeabi_memcpy4                                                           
0000548f  __aeabi_memcpy8                                                           
0000548f  memcpy                                                                    
0000552b  NOROM_RFCRTrim                                                            
0000552d  ti_sysbios_knl_Clock_workFuncDynamic__E                                   
000055c5  PIN_open                                                                  
000056ed  xdc_runtime_Text_putMod__E                                                
00005811  Latitude                                                                  
0000589f  Longitude                                                                 
000059b9  UARTCC26XX_writeCancel                                                    
00005ad1  CoordinatorTask_init                                                      
00005b59  GrRectFill                                                                
00005ce9  RF_pendCmd                                                                
00005de5  __aeabi_memclr                                                            
00005de5  __aeabi_memclr4                                                           
00005de5  __aeabi_memclr8                                                           
00005de7  __aeabi_memset                                                            
00005de7  __aeabi_memset4                                                           
00005de7  __aeabi_memset8                                                           
00005ded  memset                                                                    
00005e61  NOROM_SetupAfterColdResetWakeupFromShutDownCfg1                           
00005ed9  UARTCC26XX_close                                                          
00005f51  PowerCC26XX_auxISR                                                        
00006121  ti_sysbios_family_arm_cc26xx_Timer_start__E                               
00006209  NOROM_ChipInfo_GetHwRevision                                              
00006279  ti_sysbios_knl_Event_post__E                                              
000062e9  xdc_runtime_System_formatNum__I                                           
00006359  NOROM_SetupGetTrimForAmpcompCtrl                                          
000063c5  PIN_add                                                                   
00006431  PowerCC26XX_calibrate                                                     
0000649d  UARTCC26XX_readCancel                                                     
00006509  NOROM_SetupGetTrimForAnabypassValue1                                      
00006571  NOROM_SysCtrl_DCDC_VoltageConditionalControl                              
000065d9  RF_getCurrentTime                                                         
00006641  comparePackets                                                            
000066a9  __TI_decompress_lzss                                                      
00006711  UARTCC26XX_control                                                        
000067d9  DisplaySharp_clearLines                                                   
00006839  PowerCC26XX_RCOSC_clockFunc                                               
000069b9  NOROM_OSCHF_AttemptToSwitchToXosc                                         
00006a15  NOROM_SysCtrlAdjustRechargeAfterPowerDown                                 
00006a71  PIN_remove                                                                
00006acd  UDMACC26XX_open                                                           
00006b29  xdc_runtime_Startup_getState__I                                           
00006b85  xdc_runtime_Text_putLab__E                                                
00006be1  SPICC26XXDMA_close                                                        
00006c3b  DisplayUart_put5                                                          
00006c95  PowerCC26XX_initiateCalibration                                           
00006f45  NOROM_SetupSetCacheModeAccordingToCcfgSetting                             
00007035  GrLineDrawH                                                               
00007083  DisplayUart_open                                                          
000070d1  NOROM_ChipInfo_GetChipType                                                
0000711d  NOROM_OSCClockSourceSet                                                   
000071b5  copy_in                                                                   
0000724d  DisplaySharp_close                                                        
000072e1  Display_doOpen                                                            
00007329  EastWest                                                                  
00007371  NOROM_ChipInfo_GetChipFamily                                              
000073b9  NOROM_DDI16BitfieldWrite                                                  
00007401  NorthSouth                                                                
00007449  PIN_setOutputEnable                                                       
000074d9  RF_runCmd                                                                 
00007521  Status                                                                    
00007569  Time                                                                      
000075b1  main                                                                      
00007641  RingBuf_put                                                               
00007689  ResetISR                                                                  
00007689  _c_int00                                                                  
000076cd  xdc_runtime_Text_xprintf__I                                               
00007753  __aeabi_idiv0                                                             
00007755  NOROM_DDI16BitfieldRead                                                   
00007795  RingBuf_get                                                               
000077d5  __aeabi_uidiv                                                             
000077d5  __aeabi_uidivmod                                                          
00007815  NOROM_OSC_HPOSCRelativeFrequencyOffsetGet                                 
00007851  NOROM_RFCSynthPowerDown                                                   
0000788d  PINCC26XX_getConfig                                                       
000078c9  PIN_setOutputValue                                                        
00007941  UARTCC26XX_swiIntFxn                                                      
00007a31  PIN_setInterrupt                                                          
00007a69  UART_init                                                                 
00007ad9  ti_sysbios_family_arm_cc26xx_Timer_getCurrentTick__E                      
00007b49  UDMACC26XX_close                                                          
00007bb5  GPS_init                                                                  
00007be9  NOROM_OSCHF_SwitchToRcOscTurnOffXosc                                      
00007c1d  PIN_setConfig                                                             
00007cb9  ti_sysbios_family_arm_cc26xx_Timer_initDevice__I                          
00007ced  DisplaySharp_clear                                                        
00007d1f  ti_sysbios_family_arm_cc26xx_Timer_setNextTick__E                         
00007d51  NOROM_SetupSetAonRtcSubSecInc                                             
00007d81  Power_releaseConstraint                                                   
00007db1  Power_setConstraint                                                       
00007de1  SPI_open                                                                  
00007e11  UART_open                                                                 
00007e71  ti_sysbios_BIOS_atExitFunc__I                                             
00007ea1  ti_sysbios_BIOS_startFunc__I                                              
00007ed1  ti_sysbios_family_arm_cc26xx_Timer_setThreshold__I                        
00007f01  xdc_runtime_Text_printVisFxn__I                                           
00007f5f  malloc                                                                    
00007f8d  NOROM_DDI32RegWrite                                                       
00007fb9  NOROM_SetupGetTrimForRadcExtCfg                                           
00007fe5  PINCC26XX_setMux                                                          
00008011  SharpGrLib_init                                                           
00008069  ti_sysbios_knl_Clock_getTicksUntilInterrupt__E                            
00008095  ti_sysbios_knl_Event_construct                                            
000080c1  ti_sysbios_knl_Event_pendTimeout__I                                       
000080ed  xdc_runtime_System_putchar__I                                             
00008117  ti_sysbios_BIOS_linkedWithIncorrectBootLibrary__E                         
00008119  NOROM_AONBatMonTemperatureGetDegC                                         
00008141  Power_registerNotify                                                      
000081b9  SafeHapiVoid                                                              
000081e1  strncmp                                                                   
00008209  Display_doPut5                                                            
0000822f  List_put                                                                  
00008255  PINCC26XX_getPinCount                                                     
000082e5  ti_sysbios_BIOS_registerRTSLock__I                                        
00008309  ti_sysbios_BIOS_removeRTSLock__I                                          
0000832d  ti_sysbios_family_arm_cc26xx_Timer_getMaxTicks__E                         
00008351  GrContextInit                                                             
00008373  ti_sysbios_BIOS_nullFunc__I                                               
00008375  NOROM_RFCDoorbellSendTo                                                   
00008395  NOROM_RFCRfTrimRead                                                       
000083b5  NOROM_SetupGetTrimForXoscHfCtl                                            
000083d5  Power_unregisterNotify                                                    
00008415  ti_sysbios_BIOS_rtsLock__I                                                
00008435  ti_sysbios_family_arm_cc26xx_Timer_dynamicStub__E                         
00008455  ti_sysbios_knl_Clock_stop__E                                              
00008475  ti_sysbios_knl_Event_checkEvents__I                                       
00008495  xdc_runtime_Registry_findById__E                                          
000084b5  PIN_close                                                                 
000084d3  Power_getTransitionLatency                                                
000084f1  NOROM_OSCClockSourceGet                                                   
0000850d  NOROM_SetupGetTrimForAmpcompTh2                                           
00008529  NOROM_SetupGetTrimForRcOscLfRtuneCtuneTrim                                
000085d1  List_remove                                                               
000085eb  NumLeadingZeros                                                           
00008605  xdc_runtime_System_snprintf__E                                            
0000861f  DisplayUart_close                                                         
00008637  ti_sysbios_knl_Clock_triggerFunc__I                                       
00008639  NOROM_AONRTCCurrentCompareValueGet                                        
00008651  NOROM_ChipInfo_GetPackageType                                             
00008669  NOROM_OSCHF_TurnOnXosc                                                    
00008681  NOROM_RFCCpeIntGetAndClear                                                
00008699  NOROM_SetupGetTrimForAdcShModeEn                                          
000086b1  NOROM_SetupGetTrimForAdcShVbufEn                                          
000086c9  NOROM_SetupGetTrimForAmpcompTh1                                           
000086e1  NOROM_SetupGetTrimForDblrLoopFilterResetVoltage                           
000086f9  NOROM_SetupGetTrimForRcOscLfIBiasTrim                                     
00008711  NOROM_SetupGetTrimForXoscLfRegulatorAndCmirrwrRatio                       
00008729  PIN_getConfig                                                             
00008741  Power_idleFunc                                                            
00008771  UARTCC26XX_init                                                           
00008789  UART_Params_init                                                          
000087b9  reverse                                                                   
000087d1  _args_main                                                                
000087e9  __aeabi_lmul                                                              
00008819  ti_sysbios_BIOS_rtsUnlock__I                                              
00008831  ti_sysbios_knl_Swi_or__E                                                  
00008849  ti_sysbios_rom_cortexm_cc26xx_CC26xx_checkRevision__E                     
00008861  ti_sysbios_BIOS_exitFunc__I                                               
000088fb  ti_sysbios_rom_cortexm_cc26xx_CC26xx_badRomRevision__E                    
000088fd  CoordinatorRadioTask_registerPacketReceivedCallback                       
00008911  NOROM_AONRTCCurrent64BitValueGet                                          
00008925  NOROM_ThisCodeIsBuiltForCC26xxHwRev22AndLater_HaltIfViolated              
00008939  PIN_getOutputValue                                                        
0000894d  RF_Params_init                                                            
00008961  SPI_Params_init                                                           
00008975  _register_unlock                                                          
0000897b  _register_lock                                                            
00008983  _nop                                                                      
00008989  strlen                                                                    
0000899d  ti_sysbios_knl_Clock_doTick__I                                            
000089b1  ti_sysbios_knl_Event_Instance_init__E                                     
000089c5  RingBuf_construct                                                         
000089d7  xdc_runtime_Startup_exec__I                                               
000089f9  NOROM_RFCRfTrimSet                                                        
00008a09  NOROM_SetupGetTrimForXoscHfFastStart                                      
00008a19  NOROM_SetupGetTrimForXoscHfIbiastherm                                     
00008a49  ti_sysbios_family_arm_m3_Hwi_post__E                                      
00008a49  ti_sysbios_hal_Hwi_HwiProxy_post__E                                       
00008a49  ti_sysbios_hal_Hwi_post__E                                                
00008a69  xdc_runtime_SysCallback_putch__E                                          
00008a69  xdc_runtime_System_SupportProxy_putch__E                                  
00008a79  xdc_runtime_SysCallback_ready__E                                          
00008a79  xdc_runtime_System_SupportProxy_ready__E                                  
00008a89  xdc_runtime_System_vsnprintf__E                                           
00008a99  NOROM_VIMSModeGet                                                         
00008aa7  SPICC26XXDMA_init                                                         
00008ab5  __TI_decompress_none                                                      
00008ac3  ti_sysbios_family_arm_cc26xx_TimestampProvider_get32__E                   
00008ac3  xdc_runtime_Timestamp_SupportProxy_get32__E__mangled__                    
00008add  NOROM_CPUcpsid                                                            
00008ae9  NOROM_CPUcpsie                                                            
00008af5  PIN_registerIntCb                                                         
00008b01  Power_getConstraintMask                                                   
00008b0d  Power_getDependencyCount                                                  
00008b19  __TI_zero_init                                                            
00008b31  ti_sysbios_knl_Event_Params__init__S                                      
00008b55  ti_sysbios_knl_Swi_getTrigger__E                                          
00008b61  xdc_runtime_Startup_reset__I                                              
00008b6d  xdc_runtime_Startup_rtsDone__E                                            
00008b79  List_empty                                                                
00008b83  SPI_close                                                                 
00008b8d  SPI_transfer                                                              
00008ba1  UART_close                                                                
00008bab  UART_read                                                                 
00008bb5  UART_write                                                                
00008bbf  UDMACC26XX_hwiIntFxn                                                      
00008bc9  DisplaySharp_getType                                                      
00008bf9  xdc_runtime_Text_visitRope__I                                             
00008c01  DisplayUart_control                                                       
00008c07  DisplayUart_getType                                                       
00008c0d  Display_doParamsInit                                                      
00008c13  UARTCC26XX_readPolling                                                    
00008c19  UARTCC26XX_writePolling                                                   
00008c25  ti_sysbios_family_arm_m3_Hwi_setFunc__E                                   
00008c2b  HwiP_disable                                                              
00008c2f  List_head                                                                 
00008c33  List_next                                                                 
00008c3f  ti_sysbios_family_arm_cc26xx_Timer_getCount64__E                          
00008c43  xdc_runtime_SysCallback_defaultReady                                      
00008c47  xdc_runtime_System_snprintf_va__F                                         
00008c4b  xdc_runtime_SysCallback_defaultAbort                                      
00008c4d  xdc_runtime_SysCallback_defaultExit                                       
00008c4f  xdc_runtime_SysCallback_defaultPutch                                      
0000af38  g_sFontFixed6x8                                                           
0000b000  SPICC26XXDMA_fxnTable                                                     
0000b054  resourceDB                                                                
0000b128  spiCC26XXDMAHWAttrs                                                       
0000b160  BoardGpioInitTable                                                        
0000b18c  UARTCC26XX_fxnTable                                                       
0000b1b4  Display_config                                                            
0000b1d8  SPI_config                                                                
0000b1fc  UART_defaultParams                                                        
0000b220  DisplaySharp_fxnTable                                                     
0000b244  xdc_runtime_Startup_sfxnTab__A                                            
0000b268  SPI_defaultParams                                                         
0000b288  g_sharpFxns                                                               
0000b2a8  ti_sysbios_knl_Event_Object__DESC__C                                      
0000b2c8  uartCC26XXHWAttrs                                                         
0000b2e8  DisplayUart_fxnTable                                                      
0000b304  UART_config                                                               
0000b31c  ti_sysbios_knl_Event_Object__PARAMS__C                                    
0000b334  displayUartHWAttrs                                                        
0000b35c  xdc_runtime_Startup_sfxnRts__A                                            
0000b37e  xdc_runtime_Text_registryModsLastId__C                                    
0000b380  PowerCC26XX_config                                                        
0000b390  UDMACC26XX_config                                                         
0000b3a0  displaySharpHWattrs                                                       
0000b3b0  xdc_runtime_Startup_firstFxns__A                                          
0000b3bc  PINCC26XX_hwAttrs                                                         
0000b3c4  udmaHWAttrs                                                               
0000b3d1  RFCC26XX_hwAttrs                                                          
0000b3d5  Display_defaultParams                                                     
0000b3d6  xdc_runtime_Text_unnamedModsLastId__C                                     
0000b3d8  ti_sysbios_knl_Clock_tickPeriod__C                                        
0000b3dc  ti_sysbios_knl_Clock_triggerClock__C                                      
0000b3e0  ti_sysbios_knl_Event_Instance_State_pendQ__O                              
0000b3e4  ti_sysbios_knl_Idle_funcList__A                                           
0000b3e8  xdc_runtime_SysCallback_putchFxn__C                                       
0000b3ec  xdc_runtime_SysCallback_readyFxn__C                                       
0000b3f0  xdc_runtime_System_extendFxn__C                                           
0000b3f4  xdc_runtime_Text_visitRopeFxn__C                                          
0000b3f8  xdc_runtime_Text_charTab__A                                               
0000b400  __TI_static_base__                                                        
0000b6a8  __TI_Handler_Table_Base                                                   
0000b6b4  __TI_Handler_Table_Limit                                                  
0000b708  __TI_CINIT_Base                                                           
0000b788  __TI_CINIT_Limit                                                          
0001ffa8  __ccfg                                                                    
1001a001  ti_sysbios_knl_Mailbox_Instance_init__E                                   
1001a0cd  ti_sysbios_knl_Semaphore_pend__E                                          
1001a199  ti_sysbios_heaps_HeapMem_alloc__E                                         
1001a25d  ti_sysbios_knl_Task_Instance_init__E                                      
1001a319  ti_sysbios_family_arm_m3_Hwi_postInit__I                                  
1001a3c9  ti_sysbios_family_arm_m3_Hwi_Instance_init__E                             
1001a469  ti_sysbios_family_arm_cc26xx_Timer_periodicStub__E                        
1001a4fd  ti_sysbios_knl_Task_Instance_finalize__E                                  
1001a591  ti_sysbios_knl_Mailbox_post__E                                            
1001a615  ti_sysbios_knl_Task_postInit__I                                           
1001a699  ti_sysbios_family_arm_m3_Hwi_initNVIC__E                                  
1001a719  ti_sysbios_knl_Clock_startI__E                                            
1001a795  ti_sysbios_heaps_HeapMem_free__E                                          
1001a80d  ti_sysbios_knl_Clock_walkQueueDynamic__E                                  
1001a885  ti_sysbios_knl_Clock_workFunc__E                                          
1001a8fd  ti_sysbios_knl_Mailbox_pend__E                                            
1001a96d  ti_sysbios_knl_Task_sleep__E                                              
1001a9dd  ti_sysbios_knl_Mailbox_Instance_finalize__E                               
1001aa49  ti_sysbios_family_arm_m3_Hwi_dispatchC__I                                 
1001aab1  ti_sysbios_family_arm_m3_Hwi_Object__create__S                            
1001ab15  ti_sysbios_family_arm_m3_Hwi_create                                       
1001ab79  ti_sysbios_hal_Hwi_create                                                 
1001abdd  ti_sysbios_knl_Mailbox_create                                             
1001ac41  ti_sysbios_knl_Semaphore_post__E                                          
1001aca5  ti_sysbios_knl_Swi_Instance_init__E                                       
1001ad05  ti_sysbios_knl_Swi_create                                                 
1001ad61  ti_sysbios_knl_Swi_restoreHwi__E                                          
1001adbd  ti_sysbios_knl_Task_Module_startup__E                                     
1001ae19  ti_sysbios_knl_Task_create                                                
1001ae75  ti_sysbios_knl_Task_startCore__E                                          
1001aed1  ti_sysbios_family_arm_m3_Hwi_Instance_finalize__E                         
1001af29  ti_sysbios_family_arm_m3_Hwi_construct                                    
1001af81  ti_sysbios_knl_Mailbox_construct                                          
1001afd9  ti_sysbios_knl_Swi_run__I                                                 
1001b031  ti_sysbios_knl_Swi_schedule__I                                            
1001b085  ti_sysbios_knl_Swi_construct                                              
1001b0d5  ti_sysbios_knl_Swi_runLoop__I                                             
1001b125  ti_sysbios_knl_Task_construct                                             
1001b175  ti_sysbios_knl_Task_schedule__I                                           
1001b1c1  ti_sysbios_family_arm_m3_Hwi_Module_startup__E                            
1001b209  ti_sysbios_heaps_HeapMem_getStats__E                                      
1001b251  ti_sysbios_knl_Mailbox_Module_startup__E                                  
1001b299  ti_sysbios_family_arm_m3_Hwi_disableInterrupt__E                          
1001b2dd  ti_sysbios_family_arm_m3_Hwi_enableInterrupt__E                           
1001b321  ti_sysbios_knl_Swi_post__E                                                
1001b365  ti_sysbios_knl_Task_allBlockedFunction__I                                 
1001b3a9  ti_sysbios_knl_Task_yield__E                                              
1001b3ed  ti_sysbios_knl_Clock_create                                               
1001b429  ti_sysbios_knl_Task_exit__E                                               
1001b463  ti_sysbios_gates_GateHwi_Instance_init__E                                 
1001b465  ti_sysbios_family_arm_m3_Hwi_getStackInfo__E                              
1001b49d  ti_sysbios_family_arm_m3_TaskSupport_start__E                             
1001b4d5  ti_sysbios_heaps_HeapMem_Instance_init__E                                 
1001b50d  ti_sysbios_knl_Clock_Instance_init__E                                     
1001b545  ti_sysbios_heaps_HeapMem_init__I                                          
1001b579  ti_sysbios_knl_Clock_construct                                            
1001b5ad  ti_sysbios_knl_Semaphore_create                                           
1001b5e1  ti_sysbios_knl_Swi_restore__E                                             
1001b615  ti_sysbios_knl_Task_blockI__E                                             
1001b649  ti_sysbios_gates_GateMutex_Object__create__S                              
1001b679  ti_sysbios_gates_GateMutex_create                                         
1001b6a9  ti_sysbios_gates_GateMutex_enter__E                                       
1001b6d9  ti_sysbios_knl_Clock_getTicks__E                                          
1001b709  ti_sysbios_knl_Semaphore_construct                                        
1001b739  ti_sysbios_knl_Task_processVitalTaskFlag__I                               
1001b769  ti_sysbios_family_arm_cc26xx_Timer_postInit__I                            
1001b795  ti_sysbios_family_arm_cc26xx_Timer_startup__E                             
1001b795  ti_sysbios_knl_Clock_TimerProxy_startup__E                                
1001b7c1  ti_sysbios_family_arm_m3_Hwi_Object__get__S                               
1001b7ed  ti_sysbios_gates_GateMutex_construct                                      
1001b819  ti_sysbios_hal_Hwi_initStack                                              
1001b845  ti_sysbios_heaps_HeapMem_Object__create__S                                
1001b871  ti_sysbios_heaps_HeapMem_Object__get__S                                   
1001b89d  ti_sysbios_knl_Mailbox_Object__get__S                                     
1001b8c9  ti_sysbios_knl_Mailbox_postInit__I                                        
1001b8f5  ti_sysbios_knl_Queue_construct                                            
1001b921  ti_sysbios_knl_Queue_create                                               
1001b94d  ti_sysbios_knl_Semaphore_pendTimeout__I                                   
1001b979  ti_sysbios_knl_Swi_Object__get__S                                         
1001b9a5  ti_sysbios_knl_Task_unblockI__E                                           
1001b9d1  ti_sysbios_family_arm_cc26xx_TimestampProvider_get64__E                   
1001b9d1  xdc_runtime_Timestamp_SupportProxy_get64__E                               
1001b9d1  xdc_runtime_Timestamp_get64__E                                            
1001b9f9  ti_sysbios_hal_Hwi_Instance_init__E                                       
1001ba21  ti_sysbios_knl_Clock_addI__E                                              
1001ba49  ti_sysbios_knl_Task_restore__E                                            
1001ba71  ti_sysbios_family_arm_cc26xx_Timer_Module_startup__E                      
1001ba95  ti_sysbios_gates_GateHwi_Object__create__S                                
1001bab9  ti_sysbios_BIOS_RtsGateProxy_Object__delete__S                            
1001bab9  ti_sysbios_gates_GateMutex_Object__delete__S                              
1001bab9  ti_sysbios_heaps_HeapMem_Module_GateProxy_Object__delete__S               
1001badd  ti_sysbios_knl_Clock_Object__delete__S                                    
1001bb01  ti_sysbios_knl_Semaphore_Instance_init__E                                 
1001bb25  ti_sysbios_knl_Semaphore_Object__delete__S                                
1001bb49  ti_sysbios_family_arm_cc26xx_Timer_Module__startupDone__S                 
1001bb69  ti_sysbios_family_arm_cc26xx_TimestampProvider_Module_startup__E          
1001bb89  ti_sysbios_family_arm_m3_Hwi_Module__startupDone__S                       
1001bba9  ti_sysbios_family_arm_m3_Hwi_Object__delete__S                            
1001bba9  ti_sysbios_hal_Hwi_HwiProxy_Object__delete__S                             
1001bbc9  ti_sysbios_family_arm_m3_Hwi_excHandler__I                                
1001bbe9  ti_sysbios_gates_GateHwi_Handle__label__S                                 
1001bbe9  xdc_runtime_System_Module_GateProxy_Handle__label__S                      
1001bc09  ti_sysbios_gates_GateHwi_Object__delete__S                                
1001bc09  xdc_runtime_System_Module_GateProxy_Object__delete__S                     
1001bc29  ti_sysbios_BIOS_RtsGateProxy_Handle__label__S                             
1001bc29  ti_sysbios_gates_GateMutex_Handle__label__S                               
1001bc29  ti_sysbios_heaps_HeapMem_Module_GateProxy_Handle__label__S                
1001bc49  ti_sysbios_gates_GateMutex_Object__destruct__S                            
1001bc69  ti_sysbios_hal_Hwi_Object__delete__S                                      
1001bc89  ti_sysbios_heaps_HeapMem_Handle__label__S                                 
1001bc89  xdc_runtime_Memory_HeapProxy_Handle__label__S                             
1001bca9  ti_sysbios_heaps_HeapMem_Object__delete__S                                
1001bca9  xdc_runtime_Memory_HeapProxy_Object__delete__S                            
1001bcc9  ti_sysbios_knl_Clock_Module_startup__E                                    
1001bce9  ti_sysbios_knl_Clock_Object__destruct__S                                  
1001bd09  ti_sysbios_knl_Idle_run__E                                                
1001bd29  ti_sysbios_knl_Mailbox_Object__delete__S                                  
1001bd49  ti_sysbios_knl_Queue_Object__delete__S                                    
1001bd69  ti_sysbios_knl_Queue_Object__get__S                                       
1001bd89  ti_sysbios_knl_Semaphore_Object__destruct__S                              
1001bda9  ti_sysbios_knl_Swi_Object__delete__S                                      
1001bdc9  ti_sysbios_knl_Task_Object__delete__S                                     
1001bde9  ti_sysbios_knl_Task_Object__get__S                                        
1001be09  ti_sysbios_knl_Task_enter__I                                              
1001be29  ti_sysbios_knl_Task_restoreHwi__E                                         
1001be49  ti_sysbios_hal_Hwi_HwiProxy_create                                        
1001be67  ti_sysbios_knl_Clock_logTick__E                                           
1001be69  ti_sysbios_family_arm_m3_Hwi_Object__destruct__S                          
1001be85  ti_sysbios_family_arm_m3_Hwi_setPriority__E                               
1001bea1  ti_sysbios_gates_GateMutex_Instance_init__E                               
1001bebd  ti_sysbios_knl_Clock_scheduleNextTick__E                                  
1001bed9  ti_sysbios_knl_Mailbox_Object__destruct__S                                
1001bef5  ti_sysbios_knl_Queue_Object__destruct__S                                  
1001bf11  ti_sysbios_knl_Queue_get__E                                               
1001bf2d  ti_sysbios_knl_Queue_put__E                                               
1001bf49  ti_sysbios_knl_Swi_Object__destruct__S                                    
1001bf65  ti_sysbios_knl_Task_Object__destruct__S                                   
1001bf81  ti_sysbios_knl_Task_sleepTimeout__I                                       
1001bf9b  ti_sysbios_knl_Swi_Instance_finalize__E                                   
1001bf9d  ti_sysbios_gates_GateMutex_leave__E                                       
1001bfb5  ti_sysbios_knl_Task_unblock__E                                            
1001bfcd  ti_sysbios_knl_Clock_Instance_finalize__E                                 
1001bfe3  ti_sysbios_knl_Clock_start__E                                             
1001bff9  ti_sysbios_BIOS_getCpuFreq__E                                             
1001c00d  ti_sysbios_family_arm_m3_Hwi_switchFromBootStack__E                       
1001c021  ti_sysbios_hal_Hwi_Module_startup__E                                      
1001c035  ti_sysbios_BIOS_exit__E                                                   
1001c045  ti_sysbios_BIOS_setThreadType__E                                          
1001c055  ti_sysbios_BIOS_start__E                                                  
1001c065  ti_sysbios_family_arm_m3_Hwi_plug__E                                      
1001c075  ti_sysbios_gates_GateMutex_Instance_finalize__E                           
1001c085  ti_sysbios_hal_Hwi_HwiProxy_Object__create__S                             
1001c095  ti_sysbios_knl_Clock_TimerProxy_getCurrentTick__E                         
1001c0a5  ti_sysbios_knl_Clock_TimerProxy_getMaxTicks__E                            
1001c0b5  ti_sysbios_knl_Clock_TimerProxy_setNextTick__E                            
1001c0c5  ti_sysbios_knl_Semaphore_Instance_finalize__E                             
1001c0d5  ti_sysbios_knl_Swi_disable__E                                             
1001c0e5  ti_sysbios_knl_Swi_enabled__E                                             
1001c0f5  ti_sysbios_knl_Task_disable__E                                            
1001c105  ti_sysbios_heaps_HeapMem_restore__E                                       
1001c113  ti_sysbios_knl_Queue_empty__E                                             
1001c121  ti_sysbios_knl_Queue_remove__E                                            
1001c12f  ti_sysbios_family_arm_cc26xx_TimestampProvider_getFreq__E                 
1001c12f  xdc_runtime_Timestamp_SupportProxy_getFreq__E                             
1001c12f  xdc_runtime_Timestamp_getFreq__E                                          
1001c13d  ti_sysbios_family_arm_m3_Hwi_Params__init__S                              
1001c13d  ti_sysbios_hal_Hwi_HwiProxy_Params__init__S                               
1001c149  ti_sysbios_family_arm_m3_Hwi_disableFxn__E                                
1001c155  ti_sysbios_family_arm_m3_Hwi_enableFxn__E                                 
1001c161  ti_sysbios_family_arm_m3_TaskSupport_getStackAlignment__E                 
1001c16d  ti_sysbios_gates_GateHwi_enter__E                                         
1001c179  ti_sysbios_BIOS_RtsGateProxy_Params__init__S                              
1001c179  ti_sysbios_gates_GateMutex_Params__init__S                                
1001c179  ti_sysbios_heaps_HeapMem_Module_GateProxy_Params__init__S                 
1001c185  ti_sysbios_knl_Clock_Params__init__S                                      
1001c191  ti_sysbios_knl_Clock_getTimerHandle__E                                    
1001c19d  ti_sysbios_knl_Mailbox_Params__init__S                                    
1001c1a9  ti_sysbios_knl_Queue_dequeue__E                                           
1001c1b5  ti_sysbios_knl_Queue_enqueue__E                                           
1001c1c1  ti_sysbios_knl_Semaphore_Params__init__S                                  
1001c1cd  ti_sysbios_knl_Swi_Params__init__S                                        
1001c1d9  ti_sysbios_knl_Task_Params__init__S                                       
1001c1e5  ti_sysbios_knl_Task_self__E                                               
1001c1f1  ti_sysbios_hal_Hwi_Instance_finalize__E                                   
1001c1fb  ti_sysbios_family_arm_m3_Hwi_doSwiRestore__I                              
1001c203  ti_sysbios_family_arm_m3_Hwi_startup__E                                   
1001c20b  ti_sysbios_knl_Idle_loop__E                                               
1001c213  ti_sysbios_family_arm_m3_Hwi_doTaskRestore__I                             
1001c219  ti_sysbios_family_arm_m3_Hwi_restoreFxn__E                                
1001c21f  ti_sysbios_gates_GateHwi_leave__E                                         
1001c22b  ti_sysbios_knl_Queue_Instance_init__E                                     
1001c231  ti_sysbios_knl_Queue_elemClear__E                                         
1001c237  ti_sysbios_knl_Swi_Module_startup__E                                      
1001c23d  ti_sysbios_knl_Swi_startup__E                                             
1001c243  ti_sysbios_knl_Task_enable__E                                             
1001c249  ti_sysbios_BIOS_RtsGateProxy_enter__E                                     
1001c24d  ti_sysbios_BIOS_RtsGateProxy_leave__E                                     
1001c251  ti_sysbios_family_arm_cc26xx_Timer_getExpiredTicks__E                     
1001c255  ti_sysbios_family_arm_cc26xx_Timer_getPeriod__E                           
1001c259  ti_sysbios_family_arm_cc26xx_Timer_setPeriod__E                           
1001c25d  ti_sysbios_family_arm_m3_Hwi_delete                                       
1001c261  ti_sysbios_family_arm_m3_Hwi_destruct                                     
1001c265  ti_sysbios_family_arm_m3_TaskSupport_Module__startupDone__S               
1001c269  ti_sysbios_gates_GateHwi_query__E                                         
1001c269  xdc_runtime_System_Module_GateProxy_query__E                              
1001c26d  ti_sysbios_gates_GateMutex_delete                                         
1001c271  ti_sysbios_gates_GateMutex_destruct                                       
1001c275  ti_sysbios_BIOS_RtsGateProxy_query__E                                     
1001c275  ti_sysbios_gates_GateMutex_query__E                                       
1001c275  ti_sysbios_heaps_HeapMem_Module_GateProxy_query__E                        
1001c279  ti_sysbios_hal_Hwi_HwiProxy_Module__startupDone__S                        
1001c27d  ti_sysbios_hal_Hwi_HwiProxy_delete                                        
1001c281  ti_sysbios_hal_Hwi_HwiProxy_disableInterrupt__E                           
1001c281  ti_sysbios_hal_Hwi_disableInterrupt__E                                    
1001c285  ti_sysbios_hal_Hwi_HwiProxy_enableInterrupt__E                            
1001c285  ti_sysbios_hal_Hwi_enableInterrupt__E                                     
1001c289  ti_sysbios_hal_Hwi_HwiProxy_getStackInfo__E                               
1001c289  ti_sysbios_hal_Hwi_getStackInfo__E                                        
1001c28d  ti_sysbios_hal_Hwi_HwiProxy_startup__E                                    
1001c28d  ti_sysbios_hal_Hwi_startup__E                                             
1001c291  ti_sysbios_hal_Hwi_HwiProxy_switchFromBootStack__E                        
1001c295  ti_sysbios_hal_Hwi_delete                                                 
1001c299  ti_sysbios_hal_Hwi_switchFromBootStack__E                                 
1001c29d  ti_sysbios_heaps_HeapMem_Module_GateProxy_enter__E                        
1001c2a1  ti_sysbios_heaps_HeapMem_Module_GateProxy_leave__E                        
1001c2a5  ti_sysbios_heaps_HeapMem_isBlocking__E                                    
1001c2a9  ti_sysbios_knl_Clock_TimerProxy_Module__startupDone__S                    
1001c2ad  ti_sysbios_knl_Clock_TimerProxy_getExpiredTicks__E                        
1001c2b1  ti_sysbios_knl_Clock_TimerProxy_getPeriod__E                              
1001c2b5  ti_sysbios_knl_Clock_delete                                               
1001c2b9  ti_sysbios_knl_Clock_destruct                                             
1001c2bd  ti_sysbios_knl_Clock_removeI__E                                           
1001c2c1  ti_sysbios_knl_Clock_setTimeout__E                                        
1001c2c5  ti_sysbios_knl_Mailbox_delete                                             
1001c2c9  ti_sysbios_knl_Mailbox_destruct                                           
1001c2cd  ti_sysbios_knl_Queue_delete                                               
1001c2d1  ti_sysbios_knl_Queue_destruct                                             
1001c2d5  ti_sysbios_knl_Queue_head__E                                              
1001c2d9  ti_sysbios_knl_Queue_next__E                                              
1001c2dd  ti_sysbios_knl_Semaphore_delete                                           
1001c2e1  ti_sysbios_knl_Semaphore_destruct                                         
1001c2e5  ti_sysbios_knl_Swi_delete                                                 
1001c2e9  ti_sysbios_knl_Swi_destruct                                               
1001c2ed  ti_sysbios_knl_Swi_postInit__I                                            
1001c2f1  ti_sysbios_knl_Task_SupportProxy_Module__startupDone__S                   
1001c2f5  ti_sysbios_knl_Task_SupportProxy_getStackAlignment__E                     
1001c2f9  ti_sysbios_knl_Task_SupportProxy_start__E                                 
1001c2fd  ti_sysbios_knl_Task_SupportProxy_swap__E                                  
1001c301  ti_sysbios_knl_Task_delete                                                
1001c305  ti_sysbios_knl_Task_destruct                                              
1001c309  ti_sysbios_knl_Task_startup__E                                            
1001c30d  xdc_runtime_Startup_startMods__I                                          
1001c405  xdc_runtime_Core_createObject__I                                          
1001c487  xdc_runtime_Error_policySpin__E                                           
1001c489  xdc_runtime_Memory_alloc__E                                               
1001c4f9  xdc_runtime_Core_deleteObject__I                                          
1001c559  xdc_runtime_Startup_exec__E                                               
1001c5a9  xdc_runtime_Assert_raise__I                                               
1001c5f1  xdc_runtime_Core_assignParams__I                                          
1001c639  xdc_runtime_Core_constructObject__I                                       
1001c681  xdc_runtime_System_atexit__E                                              
1001c6b9  xdc_runtime_System_processAtExit__E                                       
1001c6ed  xdc_runtime_Core_assignLabel__I                                           
1001c71d  xdc_runtime_Text_cordText__E                                              
1001c749  xdc_runtime_System_abort__E                                               
1001c769  xdc_runtime_Error_raiseX__E                                               
1001c785  xdc_runtime_Memory_valloc__E                                              
1001c7a1  xdc_runtime_Core_destructObject__I                                        
1001c7b9  xdc_runtime_Error_check__E                                                
1001c7d1  xdc_runtime_System_exit__E                                                
1001c7e9  xdc_runtime_Text_ropeText__E                                              
1001c801  xdc_runtime_Memory_free__E                                                
1001c811  xdc_runtime_SysCallback_abort__E                                          
1001c821  xdc_runtime_SysCallback_exit__E                                           
1001c831  xdc_runtime_Timestamp_SupportProxy_get32__E                               
1001c831  xdc_runtime_Timestamp_get32__E                                            
1001c841  xdc_runtime_Error_init__E                                                 
1001c84d  xdc_runtime_Memory_calloc__E                                              
1001c859  xdc_runtime_Memory_getMaxDefaultTypeAlign__E                              
1001c879  xdc_runtime_Gate_leaveSystem__E                                           
1001c87f  xdc_runtime_System_Module_startup__E                                      
1001c885  xdc_runtime_Gate_enterSystem__E                                           
1001c889  xdc_runtime_Memory_HeapProxy_alloc__E                                     
1001c88d  xdc_runtime_Memory_HeapProxy_free__E                                      
1001c891  xdc_runtime_System_Module_GateProxy_enter__E                              
1001c895  xdc_runtime_System_Module_GateProxy_leave__E                              
1001c899  xdc_runtime_System_abortSpin__E                                           
1001c89b  xdc_runtime_System_exitSpin__E                                            
1001c89d  ti_sysbios_family_arm_m3_Hwi_dispatch__I                                  
1001c96d  ti_sysbios_family_arm_m3_TaskSupport_buildTaskStack                       
1001c9b9  ti_sysbios_family_arm_m3_Hwi_initStacks__E                                
1001ca01  ti_sysbios_family_arm_m3_Hwi_excHandlerAsm__I                             
1001ca21  ti_sysbios_family_xxx_Hwi_switchAndRunFunc                                
1001ca3f  ti_sysbios_family_arm_m3_Hwi_pendSV__I                                    
1001ca57  ti_sysbios_family_arm_m3_Hwi_return                                       
1001ca59  ti_sysbios_family_arm_m3_TaskSupport_glue                                 
1001ca69  ti_sysbios_family_arm_m3_TaskSupport_swap__E                              
1001ca71  ti_sysbios_knl_Task_swapReturn                                            
1001ca9b  ti_sysbios_rom_cortexm_cc26xx_CC26xx_getRevision__E                       
20000000  ti_sysbios_family_arm_m3_Hwi_ramVectors                                   
20000100  ti_sysbios_knl_Task_Module__state__V                                      
20000144  ti_sysbios_family_arm_m3_Hwi_Module__state__V                             
20000178  ti_sysbios_knl_Clock_Module__state__V                                     
200001a4  ti_sysbios_BIOS_Module__state__V                                          
200001c8  ti_sysbios_knl_Swi_Module__state__V                                       
200001e4  ti_sysbios_family_arm_cc26xx_Timer_Module__state__V                       
200001ec  ti_sysbios_family_arm_cc26xx_TimestampProvider_Module__state__V           
200001f0  xdc_runtime_Startup_Module__state__V                                      
200001f8  xdc_runtime_System_Module__state__V                                       
20000200  xdc_runtime_Memory_Module__state__V                                       
200011a0  ti_sysbios_heaps_HeapMem_Instance_State_0_buf__A                          
200015a0  task0Stack                                                                
200018a0  ti_sysbios_knl_Task_Instance_State_0_stack__A                             
20001aa0  spiCC26XXDMAObjects                                                       
20001c58  uartCC26XXObjects                                                         
20001e88  ti_sysbios_family_arm_m3_Hwi_dispatchTable                                
200022dc  PIN_HandleTable                                                           
20002358  displaySharpObject                                                        
200023c4  coordinatorRFTask                                                         
20002414  coordinatorTask                                                           
20002464  task0Struct                                                               
200025bc  knownSensorNodes                                                          
2000264c  displayUartObject                                                         
2000266c  uartCC26XXRingBuffer                                                      
2000268c  udmaObjects                                                               
200027b4  coordinatorEvent                                                          
200027dc  radioOperationEvent                                                       
20002834  test                                                                      
20002874  PIN_NumPins                                                               
200028a5  driverlib_release_0_47020                                                 
200028b0  PowerCC26XX_module                                                        
200029c0  pOverrides                                                                
20002a28  pOverrides_fsk                                                            
20002a90  ti_sysbios_knl_Task_Object__table__V                                      
20002ae0  ti_sysbios_family_arm_cc26xx_Timer_Object__table__V                       
20002b28  RF_pProp_2_4G_fsk                                                         
20002b2c  RF_pProp_fsk                                                              
20002b30  RF_pProp_lrm                                                              
20002b34  RF_pProp_ook                                                              
20002b38  RF_pProp_hsm                                                              
20002b3c  RF_pCmdPropRadioSetup_2_4G_fsk                                            
20002b40  RF_pCmdPropRadioDivSetup_fsk                                              
20002b44  RF_pCmdPropRadioDivSetup_lrm                                              
20002b48  RF_pCmdPropRadioDivSetup_ook                                              
20002b4c  RF_pCmdRadioSetup_hsm                                                     
20002b50  RF_pCmdFs_preDef                                                          
20002b54  RF_pCmdPropTx_preDef                                                      
20002b58  RF_pCmdPropRxAdv_preDef                                                   
20002b5c  RF_pCmdTxHS                                                               
20002b60  RF_pCmdRxHS                                                               
20002b64  ti_sysbios_gates_GateMutex_Object__table__V                               
20002b9c  RF_cmdPropRxAdv_preDef                                                    
20002bcc  ti_sysbios_knl_Swi_Module_State_0_readyQ__A                               
20002bfc  ti_sysbios_knl_Swi_Object__table__V                                       
20002c2c  RF_cmdPropRadioDivSetup                                                   
20002c4c  RF_cmdPropRadioSetup_2_4G_fsk                                             
20002c6c  ti_sysbios_knl_Clock_Object__table__V                                     
20002c8c  ti_sysbios_knl_Task_Module_State_0_readyQ__A                              
20002cac  RF_cmdFs                                                                  
20002cc4  RF_cmdFs_preDef                                                           
20002cdc  RF_cmdPropTx                                                              
20002cf4  RF_cmdPropTx_preDef                                                       
20002d24  shape                                                                     
20002d3c  shape_preDef                                                              
20002d54  ti_sysbios_family_arm_m3_Hwi_Object__table__V                             
20002d6c  ti_sysbios_heaps_HeapMem_Object__table__V                                 
20002d84  RF_prop                                                                   
20002d94  RF_prop_2_4G_fsk                                                          
20002db4  _lock                                                                     
20002db8  _unlock                                                                   
20002dbc  ledPinTable                                                               
20002dc4  ti_sysbios_family_arm_m3_Hwi_Module__root__V                              
20002dcc  ti_sysbios_gates_GateHwi_Module__root__V                                  
20002dd4  ti_sysbios_gates_GateMutex_Module__root__V                                
20002ddc  ti_sysbios_hal_Hwi_Module__root__V                                        
20002de4  ti_sysbios_heaps_HeapMem_Module__root__V                                  
20002dec  ti_sysbios_knl_Clock_Module__root__V                                      
20002df4  ti_sysbios_knl_Event_Module__root__V                                      
20002dfc  ti_sysbios_knl_Mailbox_Module__root__V                                    
20002e04  ti_sysbios_knl_Queue_Module__root__V                                      
20002e0c  ti_sysbios_knl_Semaphore_Module__root__V                                  
20002e14  ti_sysbios_knl_Swi_Module__root__V                                        
20002e1c  ti_sysbios_knl_Task_Module__root__V                                       
20002e24  xdc_runtime_Registry_Module__state__V                                     
20002e34  main_func_sp                                                              
20002e38  ti_sysbios_family_arm_m3_Hwi_Module_State_0_excContext__A                 
20002e3c  ti_sysbios_family_arm_m3_Hwi_Module_State_0_excStack__A                   
20002e40  ti_sysbios_knl_Task_Module_State_0_idleTask__A                            
20002e46  ti_sysbios_family_arm_m3_Hwi_Module_State_0_excActive__A                  
20004d00  __stack                                                                   
20005000  __STACK_END                                                               
e000e000  ti_sysbios_family_arm_m3_Hwi_nvic                                         
ffffffff  __TI_pprof_out_hndl                                                       
ffffffff  __TI_prof_data_size                                                       
ffffffff  __TI_prof_data_start                                                      
ffffffff  __binit__                                                                 
ffffffff  __c_args__                                                                
ffffffff  binit                                                                     
UNDEFED   HwiP_restore                                                              
UNDEFED   SHT$$INIT_ARRAY$$Base                                                     
UNDEFED   SHT$$INIT_ARRAY$$Limit                                                    
UNDEFED   ti_sysbios_BIOS_RtsGateProxy_Handle__label__S__mangled__                  
UNDEFED   ti_sysbios_BIOS_RtsGateProxy_Object__delete__S__mangled__                 
UNDEFED   ti_sysbios_BIOS_RtsGateProxy_Params__init__S__mangled__                   
UNDEFED   ti_sysbios_BIOS_RtsGateProxy_query__E__mangled__                          
UNDEFED   ti_sysbios_hal_Hwi_HwiProxy_Module__startupDone__S__mangled__             
UNDEFED   ti_sysbios_hal_Hwi_HwiProxy_Object__delete__S__mangled__                  
UNDEFED   ti_sysbios_hal_Hwi_HwiProxy_Params__init__S__mangled__                    
UNDEFED   ti_sysbios_hal_Hwi_HwiProxy_disableInterrupt__E__mangled__                
UNDEFED   ti_sysbios_hal_Hwi_HwiProxy_enableInterrupt__E__mangled__                 
UNDEFED   ti_sysbios_hal_Hwi_HwiProxy_getStackInfo__E__mangled__                    
UNDEFED   ti_sysbios_hal_Hwi_HwiProxy_startup__E__mangled__                         
UNDEFED   ti_sysbios_hal_Hwi_HwiProxy_switchFromBootStack__E__mangled__             
UNDEFED   ti_sysbios_hal_Hwi_disableInterrupt__E                                    
UNDEFED   ti_sysbios_hal_Hwi_enableInterrupt__E                                     
UNDEFED   ti_sysbios_hal_Hwi_getStackInfo__E                                        
UNDEFED   ti_sysbios_hal_Hwi_startup__E                                             
UNDEFED   ti_sysbios_hal_Hwi_switchFromBootStack__E                                 
UNDEFED   ti_sysbios_heaps_HeapMem_Module_GateProxy_Handle__label__S__mangled__     
UNDEFED   ti_sysbios_heaps_HeapMem_Module_GateProxy_Object__delete__S__mangled__    
UNDEFED   ti_sysbios_heaps_HeapMem_Module_GateProxy_Params__init__S__mangled__      
UNDEFED   ti_sysbios_heaps_HeapMem_Module_GateProxy_query__E__mangled__             
UNDEFED   ti_sysbios_knl_Clock_TimerProxy_Module__startupDone__S__mangled__         
UNDEFED   ti_sysbios_knl_Clock_TimerProxy_startup__E__mangled__                     
UNDEFED   ti_sysbios_knl_Task_SupportProxy_Module__startupDone__S__mangled__        
UNDEFED   ti_sysbios_knl_Task_SupportProxy_getStackAlignment__E__mangled__          
UNDEFED   ti_sysbios_knl_Task_SupportProxy_start__E__mangled__                      
UNDEFED   ti_sysbios_knl_Task_SupportProxy_swap__E__mangled__                       
UNDEFED   xdc_runtime_Main_Module_GateProxy_Handle__label__S                        
UNDEFED   xdc_runtime_Main_Module_GateProxy_Object__delete__S                       
UNDEFED   xdc_runtime_Main_Module_GateProxy_query__E                                
UNDEFED   xdc_runtime_Memory_HeapProxy_Handle__label__S__mangled__                  
UNDEFED   xdc_runtime_Memory_HeapProxy_Object__delete__S__mangled__                 
UNDEFED   xdc_runtime_System_Module_GateProxy_Handle__label__S__mangled__           
UNDEFED   xdc_runtime_System_Module_GateProxy_Object__delete__S__mangled__          
UNDEFED   xdc_runtime_System_Module_GateProxy_query__E__mangled__                   
UNDEFED   xdc_runtime_System_SupportProxy_abort__E                                  
UNDEFED   xdc_runtime_System_SupportProxy_exit__E                                   
UNDEFED   xdc_runtime_Timestamp_SupportProxy_get64__E__mangled__                    
UNDEFED   xdc_runtime_Timestamp_SupportProxy_getFreq__E__mangled__                  
UNDEFED   xdc_runtime_Timestamp_get32__E                                            
UNDEFED   xdc_runtime_Timestamp_get64__E                                            
UNDEFED   xdc_runtime_Timestamp_getFreq__E                                          

[884 symbols]
